
./riscv/kernel:     file format elf64-littleriscv
./riscv/kernel
architecture: riscv:rv64, flags 0x00000112:
EXEC_P, HAS_SYMS, D_PAGED
start address 0x00000000000100b0

Program Header:
0x70000003 off    0x00000000000012ab vaddr 0x0000000000000000 paddr 0x0000000000000000 align 2**0
         filesz 0x000000000000003d memsz 0x0000000000000000 flags r--
    LOAD off    0x0000000000000000 vaddr 0x0000000000010000 paddr 0x0000000000010000 align 2**12
         filesz 0x0000000000001290 memsz 0x0000000000001290 flags r-x

Sections:
Idx Name          Size      VMA               LMA               File off  Algn
  0 .text         00000194  00000000000100b0  00000000000100b0  000000b0  2**2
                  CONTENTS, ALLOC, LOAD, READONLY, CODE
  1 .eh_frame     0000003c  0000000000010248  0000000000010248  00000248  2**3
                  CONTENTS, ALLOC, LOAD, READONLY, DATA
  2 .sdata        0000000c  0000000000011284  0000000000011284  00001284  2**2
                  CONTENTS, ALLOC, LOAD, READONLY, DATA
  3 .comment      0000001b  0000000000000000  0000000000000000  00001290  2**0
                  CONTENTS, READONLY
  4 .riscv.attributes 0000003d  0000000000000000  0000000000000000  000012ab  2**0
                  CONTENTS, READONLY
SYMBOL TABLE:
00000000000100b0 l    d  .text	0000000000000000 .text
0000000000010248 l    d  .eh_frame	0000000000000000 .eh_frame
0000000000011284 l    d  .sdata	0000000000000000 .sdata
0000000000000000 l    d  .comment	0000000000000000 .comment
0000000000000000 l    d  .riscv.attributes	0000000000000000 .riscv.attributes
0000000000000000 l    df *ABS*	0000000000000000 main.cpp
0000000000011a84 g       *ABS*	0000000000000000 __global_pointer$
0000000000011284 g       .sdata	0000000000000000 __SDATA_BEGIN__
0000000000011290 g       .sdata	0000000000000000 __BSS_END__
0000000000011290 g       .sdata	0000000000000000 __bss_start
00000000000100b0 g     F .text	0000000000000194 main
0000000000011284 g       .sdata	0000000000000000 __DATA_BEGIN__
0000000000011290 g       .sdata	0000000000000000 _edata
0000000000011290 g       .sdata	0000000000000000 _end



Disassembly of section .text:

00000000000100b0 <main>:
   100b0:	0000078b          	fchthrd	a5
   100b4:	10802703          	lw	a4,264(zero) # 108 <main-0xffa8>
   100b8:	0007879b          	sext.w	a5,a5
   100bc:	18e7f063          	bgeu	a5,a4,1023c <main+0x18c>
   100c0:	00011737          	lui	a4,0x11
   100c4:	28472607          	flw	fa2,644(a4) # 11284 <__DATA_BEGIN__>
   100c8:	00011737          	lui	a4,0x11
   100cc:	28872507          	flw	fa0,648(a4) # 11288 <__DATA_BEGIN__+0x4>
   100d0:	00011737          	lui	a4,0x11
   100d4:	16803f03          	ld	t5,360(zero) # 168 <main-0xff48>
   100d8:	16003e83          	ld	t4,352(zero) # 160 <main-0xff50>
   100dc:	f0000053          	fmv.w.x	ft0,zero
   100e0:	28c72587          	flw	fa1,652(a4) # 1128c <__DATA_BEGIN__+0x8>
   100e4:	ff010113          	add	sp,sp,-16
   100e8:	b31fe337          	lui	t1,0xb31fe
   100ec:	3c6ef837          	lui	a6,0x3c6ef
   100f0:	001968b7          	lui	a7,0x196
   100f4:	008005b7          	lui	a1,0x800
   100f8:	01212627          	fsw	fs2,12(sp)
   100fc:	01312427          	fsw	fs3,8(sp)
   10100:	01412227          	fsw	fs4,4(sp)
   10104:	60d3031b          	addw	t1,t1,1549 # ffffffffb31fe60d <__global_pointer$+0xffffffffb31ecb89>
   10108:	35f8081b          	addw	a6,a6,863 # 3c6ef35f <__global_pointer$+0x3c6dd8db>
   1010c:	fff58593          	add	a1,a1,-1 # 7fffff <__global_pointer$+0x7ee57b>
   10110:	3f800537          	lui	a0,0x3f800
   10114:	60d8889b          	addw	a7,a7,1549 # 19660d <__global_pointer$+0x184b89>
   10118:	ff000e37          	lui	t3,0xff000
   1011c:	0017869b          	addw	a3,a5,1
   10120:	00a6971b          	sllw	a4,a3,0xa
   10124:	00d7073b          	addw	a4,a4,a3
   10128:	0067569b          	srlw	a3,a4,0x6
   1012c:	00e6c6b3          	xor	a3,a3,a4
   10130:	0036971b          	sllw	a4,a3,0x3
   10134:	00d7073b          	addw	a4,a4,a3
   10138:	00b7569b          	srlw	a3,a4,0xb
   1013c:	00e6c6b3          	xor	a3,a3,a4
   10140:	02d3073b          	mulw	a4,t1,a3
   10144:	00f6961b          	sllw	a2,a3,0xf
   10148:	00d6063b          	addw	a2,a2,a3
   1014c:	00b67633          	and	a2,a2,a1
   10150:	00a66633          	or	a2,a2,a0
   10154:	f00607d3          	fmv.w.x	fa5,a2
   10158:	3ff7f693          	and	a3,a5,1023
   1015c:	f0068a53          	fmv.w.x	fs4,a3
   10160:	08c7f953          	fsub.s	fs2,fa5,fa2
   10164:	00469693          	sll	a3,a3,0x4
   10168:	0107073b          	addw	a4,a4,a6
   1016c:	0317063b          	mulw	a2,a4,a7
   10170:	00e5f733          	and	a4,a1,a4
   10174:	00a76733          	or	a4,a4,a0
   10178:	f00707d3          	fmv.w.x	fa5,a4
   1017c:	08c7f9d3          	fsub.s	fs3,fa5,fa2
   10180:	0106073b          	addw	a4,a2,a6
   10184:	00b77733          	and	a4,a4,a1
   10188:	00a76733          	or	a4,a4,a0
   1018c:	f00707d3          	fmv.w.x	fa5,a4
   10190:	08c7f8d3          	fsub.s	fa7,fa5,fa2
   10194:	0110300b          	cshit	fa7,0(zero) # 0 <main-0x100b0>
   10198:	00df0733          	add	a4,t5,a3
   1019c:	00072687          	flw	fa3,0(a4)
   101a0:	00872707          	flw	fa4,8(a4)
   101a4:	00472787          	flw	fa5,4(a4)
   101a8:	00c6f1d3          	fadd.s	ft3,fa3,fa2
   101ac:	00c77153          	fadd.s	ft2,fa4,fa2
   101b0:	00c7f0d3          	fadd.s	ft1,fa5,fa2
   101b4:	02079713          	sll	a4,a5,0x20
   101b8:	01e75793          	srl	a5,a4,0x1e
   101bc:	1836f6d3          	fdiv.s	fa3,fa3,ft3
   101c0:	00fe87b3          	add	a5,t4,a5
   101c4:	18277753          	fdiv.s	fa4,fa4,ft2
   101c8:	280696d3          	fmax.s	fa3,fa3,ft0
   101cc:	28c686d3          	fmin.s	fa3,fa3,fa2
   101d0:	58a6f6c3          	fmadd.s	fa3,fa3,fa0,fa1
   101d4:	c01696d3          	fcvt.wu.s	a3,fa3,rtz
   101d8:	0106969b          	sllw	a3,a3,0x10
   101dc:	1817f7d3          	fdiv.s	fa5,fa5,ft1
   101e0:	28071753          	fmax.s	fa4,fa4,ft0
   101e4:	28c70753          	fmin.s	fa4,fa4,fa2
   101e8:	58a77743          	fmadd.s	fa4,fa4,fa0,fa1
   101ec:	c0171753          	fcvt.wu.s	a4,fa4,rtz
   101f0:	0087171b          	sllw	a4,a4,0x8
   101f4:	00d76733          	or	a4,a4,a3
   101f8:	280797d3          	fmax.s	fa5,fa5,ft0
   101fc:	28c787d3          	fmin.s	fa5,fa5,fa2
   10200:	58a7f7c3          	fmadd.s	fa5,fa5,fa0,fa1
   10204:	c01796d3          	fcvt.wu.s	a3,fa5,rtz
   10208:	00d76733          	or	a4,a4,a3
   1020c:	01c76733          	or	a4,a4,t3
   10210:	00e7a023          	sw	a4,0(a5)
   10214:	0000078b          	fchthrd	a5
   10218:	10802703          	lw	a4,264(zero) # 108 <main-0xffa8>
   1021c:	0007879b          	sext.w	a5,a5
   10220:	eee7eee3          	bltu	a5,a4,1011c <main+0x6c>
   10224:	00c12907          	flw	fs2,12(sp)
   10228:	00812987          	flw	fs3,8(sp)
   1022c:	00412a07          	flw	fs4,4(sp)
   10230:	00000513          	li	a0,0
   10234:	01010113          	add	sp,sp,16
   10238:	00008067          	ret
   1023c:	00000513          	li	a0,0
   10240:	00008067          	ret
