
./riscv/kernel:     file format elf64-littleriscv
./riscv/kernel
architecture: riscv:rv64, flags 0x00000112:
EXEC_P, HAS_SYMS, D_PAGED
start address 0x00000000000100b0

Program Header:
0x70000003 off    0x0000000000001c73 vaddr 0x0000000000000000 paddr 0x0000000000000000 align 2**0
         filesz 0x000000000000003d memsz 0x0000000000000000 flags r--
    LOAD off    0x0000000000000000 vaddr 0x0000000000010000 paddr 0x0000000000010000 align 2**12
         filesz 0x0000000000001c58 memsz 0x0000000000001c58 flags r-x

Sections:
Idx Name          Size      VMA               LMA               File off  Algn
  0 .text         00000a88  00000000000100b0  00000000000100b0  000000b0  2**2
                  CONTENTS, ALLOC, LOAD, READONLY, CODE
  1 .eh_frame     00000108  0000000000010b38  0000000000010b38  00000b38  2**3
                  CONTENTS, ALLOC, LOAD, READONLY, DATA
  2 .sdata        00000018  0000000000011c40  0000000000011c40  00001c40  2**2
                  CONTENTS, ALLOC, LOAD, READONLY, DATA
  3 .comment      0000001b  0000000000000000  0000000000000000  00001c58  2**0
                  CONTENTS, READONLY
  4 .riscv.attributes 0000003d  0000000000000000  0000000000000000  00001c73  2**0
                  CONTENTS, READONLY
SYMBOL TABLE:
00000000000100b0 l    d  .text	0000000000000000 .text
0000000000010b38 l    d  .eh_frame	0000000000000000 .eh_frame
0000000000011c40 l    d  .sdata	0000000000000000 .sdata
0000000000000000 l    d  .comment	0000000000000000 .comment
0000000000000000 l    d  .riscv.attributes	0000000000000000 .riscv.attributes
0000000000000000 l    df *ABS*	0000000000000000 main.cpp
0000000000012440 g       *ABS*	0000000000000000 __global_pointer$
0000000000011c40 g       .sdata	0000000000000000 __SDATA_BEGIN__
0000000000010394  w    F .text	00000000000005e4 _Z17intersect_treeletRK7TreeletRKN3rtm3RayERNS2_3HitEPjRj
0000000000010978  w    F .text	00000000000001c0 _Z17intersect_bucketsPK7TreeletPN3rtm3HitE
0000000000011c58 g       .sdata	0000000000000000 __BSS_END__
0000000000011c58 g       .sdata	0000000000000000 __bss_start
00000000000100b0 g     F .text	00000000000002e4 main
0000000000011c40 g       .sdata	0000000000000000 __DATA_BEGIN__
0000000000011c58 g       .sdata	0000000000000000 _edata
0000000000011c58 g       .sdata	0000000000000000 _end



Disassembly of section .text:

00000000000100b0 <main>:
   100b0:	fc010113          	add	sp,sp,-64
   100b4:	02113c23          	sd	ra,56(sp)
   100b8:	02813823          	sd	s0,48(sp)
   100bc:	0000040b          	fchthrd	s0
   100c0:	10802603          	lw	a2,264(zero) # 108 <main-0xffa8>
   100c4:	0004041b          	sext.w	s0,s0
   100c8:	0ec47e63          	bgeu	s0,a2,101c4 <main+0x114>
   100cc:	000126b7          	lui	a3,0x12
   100d0:	c446a707          	flw	fa4,-956(a3) # 11c44 <__DATA_BEGIN__+0x4>
   100d4:	000126b7          	lui	a3,0x12
   100d8:	c486a787          	flw	fa5,-952(a3) # 11c48 <__DATA_BEGIN__+0x8>
   100dc:	00012737          	lui	a4,0x12
   100e0:	000126b7          	lui	a3,0x12
   100e4:	03212227          	fsw	fs2,36(sp)
   100e8:	03312027          	fsw	fs3,32(sp)
   100ec:	01412e27          	fsw	fs4,28(sp)
   100f0:	01512c27          	fsw	fs5,24(sp)
   100f4:	01612a27          	fsw	fs6,20(sp)
   100f8:	10002783          	lw	a5,256(zero) # 100 <main-0xffb0>
   100fc:	11c02b07          	flw	fs6,284(zero) # 11c <main-0xff94>
   10100:	12002a87          	flw	fs5,288(zero) # 120 <main-0xff90>
   10104:	13002a07          	flw	fs4,304(zero) # 130 <main-0xff80>
   10108:	13402987          	flw	fs3,308(zero) # 134 <main-0xff7c>
   1010c:	13802907          	flw	fs2,312(zero) # 138 <main-0xff78>
   10110:	13c02887          	flw	fa7,316(zero) # 13c <main-0xff74>
   10114:	14002807          	flw	fa6,320(zero) # 140 <main-0xff70>
   10118:	14402507          	flw	fa0,324(zero) # 144 <main-0xff6c>
   1011c:	14802587          	flw	fa1,328(zero) # 148 <main-0xff68>
   10120:	14c02607          	flw	fa2,332(zero) # 14c <main-0xff64>
   10124:	15002687          	flw	fa3,336(zero) # 150 <main-0xff60>
   10128:	12402007          	flw	ft0,292(zero) # 124 <main-0xff8c>
   1012c:	12802087          	flw	ft1,296(zero) # 128 <main-0xff88>
   10130:	12c02107          	flw	ft2,300(zero) # 12c <main-0xff84>
   10134:	c4c6a187          	flw	ft3,-948(a3) # 11c4c <__DATA_BEGIN__+0xc>
   10138:	c5072387          	flw	ft7,-944(a4) # 11c50 <__DATA_BEGIN__+0x10>
   1013c:	02812627          	fsw	fs0,44(sp)
   10140:	02912427          	fsw	fs1,40(sp)
   10144:	01712827          	fsw	fs7,16(sp)
   10148:	02f4573b          	divuw	a4,s0,a5
   1014c:	f0040453          	fmv.w.x	fs0,s0
   10150:	f00004d3          	fmv.w.x	fs1,zero
   10154:	02f4743b          	remuw	s0,s0,a5
   10158:	d0177253          	fcvt.s.wu	ft4,a4
   1015c:	00e27253          	fadd.s	ft4,ft4,fa4
   10160:	79527243          	fmadd.s	ft4,ft4,fs5,fa5
   10164:	110272d3          	fmul.s	ft5,ft4,fa6
   10168:	10a27bd3          	fmul.s	fs7,ft4,fa0
   1016c:	11127253          	fmul.s	ft4,ft4,fa7
   10170:	d0147353          	fcvt.s.wu	ft6,s0
   10174:	00e37353          	fadd.s	ft6,ft6,fa4
   10178:	79637343          	fmadd.s	ft6,ft6,fs6,fa5
   1017c:	21437243          	fmadd.s	ft4,ft6,fs4,ft4
   10180:	293372c3          	fmadd.s	ft5,ft6,fs3,ft5
   10184:	b9237343          	fmadd.s	ft6,ft6,fs2,fs7
   10188:	08b27253          	fsub.s	ft4,ft4,fa1
   1018c:	08c2f2d3          	fsub.s	ft5,ft5,fa2
   10190:	08d37353          	fsub.s	ft6,ft6,fa3
   10194:	1000200b          	swi	ft0,256(zero) # 100 <main-0xffb0>
   10198:	0000040b          	fchthrd	s0
   1019c:	0004041b          	sext.w	s0,s0
   101a0:	fac464e3          	bltu	s0,a2,10148 <main+0x98>
   101a4:	02c12407          	flw	fs0,44(sp)
   101a8:	02812487          	flw	fs1,40(sp)
   101ac:	02412907          	flw	fs2,36(sp)
   101b0:	02012987          	flw	fs3,32(sp)
   101b4:	01c12a07          	flw	fs4,28(sp)
   101b8:	01812a87          	flw	fs5,24(sp)
   101bc:	01412b07          	flw	fs6,20(sp)
   101c0:	01012b87          	flw	fs7,16(sp)
   101c4:	16803583          	ld	a1,360(zero) # 168 <main-0xff48>
   101c8:	17003503          	ld	a0,368(zero) # 170 <main-0xff40>
   101cc:	00000097          	auipc	ra,0x0
   101d0:	7ac080e7          	jalr	1964(ra) # 10978 <_Z17intersect_bucketsPK7TreeletPN3rtm3HitE>
   101d4:	00012623          	sw	zero,12(sp)
   101d8:	00c12683          	lw	a3,12(sp)
   101dc:	3ff00793          	li	a5,1023
   101e0:	3ff00713          	li	a4,1023
   101e4:	00d7ec63          	bltu	a5,a3,101fc <main+0x14c>
   101e8:	00c12783          	lw	a5,12(sp)
   101ec:	0017879b          	addw	a5,a5,1
   101f0:	00f12623          	sw	a5,12(sp)
   101f4:	00c12783          	lw	a5,12(sp)
   101f8:	fef778e3          	bgeu	a4,a5,101e8 <main+0x138>
   101fc:	10802783          	lw	a5,264(zero) # 108 <main-0xffa8>
   10200:	00012737          	lui	a4,0x12
   10204:	40f4043b          	subw	s0,s0,a5
   10208:	16f47c63          	bgeu	s0,a5,10380 <main+0x2d0>
   1020c:	000127b7          	lui	a5,0x12
   10210:	c407a507          	flw	fa0,-960(a5) # 11c40 <__DATA_BEGIN__>
   10214:	000127b7          	lui	a5,0x12
   10218:	c447a587          	flw	fa1,-956(a5) # 11c44 <__DATA_BEGIN__+0x4>
   1021c:	000127b7          	lui	a5,0x12
   10220:	c5072007          	flw	ft0,-944(a4) # 11c50 <__DATA_BEGIN__+0x10>
   10224:	f0000153          	fmv.w.x	ft2,zero
   10228:	c547a087          	flw	ft1,-940(a5) # 11c54 <__DATA_BEGIN__+0x14>
   1022c:	fff00613          	li	a2,-1
   10230:	ff0005b7          	lui	a1,0xff000
   10234:	11c0006f          	j	10350 <main+0x2a0>
   10238:	0007071b          	sext.w	a4,a4
   1023c:	02071513          	sll	a0,a4,0x20
   10240:	02055513          	srl	a0,a0,0x20
   10244:	00351693          	sll	a3,a0,0x3
   10248:	00a686b3          	add	a3,a3,a0
   1024c:	00269693          	sll	a3,a3,0x2
   10250:	0ec70063          	beq	a4,a2,10330 <main+0x280>
   10254:	17803783          	ld	a5,376(zero) # 178 <main-0xff38>
   10258:	00d787b3          	add	a5,a5,a3
   1025c:	0187a607          	flw	fa2,24(a5)
   10260:	0207a307          	flw	ft6,32(a5)
   10264:	0007a707          	flw	fa4,0(a5)
   10268:	0147a787          	flw	fa5,20(a5)
   1026c:	01c7a287          	flw	ft5,28(a5)
   10270:	08c77753          	fsub.s	fa4,fa4,fa2
   10274:	0867f7d3          	fsub.s	fa5,fa5,ft6
   10278:	0087a687          	flw	fa3,8(a5)
   1027c:	00c7a187          	flw	ft3,12(a5)
   10280:	0107a207          	flw	ft4,16(a5)
   10284:	0866f6d3          	fsub.s	fa3,fa3,ft6
   10288:	10f773d3          	fmul.s	ft7,fa4,fa5
   1028c:	08c1f1d3          	fsub.s	ft3,ft3,fa2
   10290:	08527253          	fsub.s	ft4,ft4,ft5
   10294:	0047a607          	flw	fa2,4(a5)
   10298:	08567653          	fsub.s	fa2,fa2,ft5
   1029c:	1046f353          	fmul.s	ft6,fa3,ft4
   102a0:	3836f6c7          	fmsub.s	fa3,fa3,ft3,ft7
   102a4:	103671d3          	fmul.s	ft3,fa2,ft3
   102a8:	30f677c7          	fmsub.s	fa5,fa2,fa5,ft6
   102ac:	10d6f653          	fmul.s	fa2,fa3,fa3
   102b0:	18477747          	fmsub.s	fa4,fa4,ft4,ft3
   102b4:	60f7f643          	fmadd.s	fa2,fa5,fa5,fa2
   102b8:	60e77643          	fmadd.s	fa2,fa4,fa4,fa2
   102bc:	58067653          	fsqrt.s	fa2,fa2
   102c0:	18c6f6d3          	fdiv.s	fa3,fa3,fa2
   102c4:	18c77753          	fdiv.s	fa4,fa4,fa2
   102c8:	00a6f6d3          	fadd.s	fa3,fa3,fa0
   102cc:	10b6f6d3          	fmul.s	fa3,fa3,fa1
   102d0:	282696d3          	fmax.s	fa3,fa3,ft2
   102d4:	28a686d3          	fmin.s	fa3,fa3,fa0
   102d8:	5816f6c3          	fmadd.s	fa3,fa3,ft1,fa1
   102dc:	18c7f7d3          	fdiv.s	fa5,fa5,fa2
   102e0:	00a77753          	fadd.s	fa4,fa4,fa0
   102e4:	c01697d3          	fcvt.wu.s	a5,fa3,rtz
   102e8:	0087979b          	sllw	a5,a5,0x8
   102ec:	10b77753          	fmul.s	fa4,fa4,fa1
   102f0:	28271753          	fmax.s	fa4,fa4,ft2
   102f4:	28a70753          	fmin.s	fa4,fa4,fa0
   102f8:	58177743          	fmadd.s	fa4,fa4,ft1,fa1
   102fc:	00a7f7d3          	fadd.s	fa5,fa5,fa0
   10300:	c0171753          	fcvt.wu.s	a4,fa4,rtz
   10304:	10b7f7d3          	fmul.s	fa5,fa5,fa1
   10308:	0107171b          	sllw	a4,a4,0x10
   1030c:	00e7e7b3          	or	a5,a5,a4
   10310:	0007879b          	sext.w	a5,a5
   10314:	282797d3          	fmax.s	fa5,fa5,ft2
   10318:	28a787d3          	fmin.s	fa5,fa5,fa0
   1031c:	5817f7c3          	fmadd.s	fa5,fa5,ft1,fa1
   10320:	c0179753          	fcvt.wu.s	a4,fa5,rtz
   10324:	00e7e7b3          	or	a5,a5,a4
   10328:	00b7e7b3          	or	a5,a5,a1
   1032c:	0007879b          	sext.w	a5,a5
   10330:	16003703          	ld	a4,352(zero) # 160 <main-0xff50>
   10334:	00241413          	sll	s0,s0,0x2
   10338:	00870733          	add	a4,a4,s0
   1033c:	00f72023          	sw	a5,0(a4)
   10340:	0000040b          	fchthrd	s0
   10344:	10802783          	lw	a5,264(zero) # 108 <main-0xffa8>
   10348:	40f4043b          	subw	s0,s0,a5
   1034c:	02f47a63          	bgeu	s0,a5,10380 <main+0x2d0>
   10350:	16803783          	ld	a5,360(zero) # 168 <main-0xff48>
   10354:	02041413          	sll	s0,s0,0x20
   10358:	02045413          	srl	s0,s0,0x20
   1035c:	00441713          	sll	a4,s0,0x4
   10360:	00e787b3          	add	a5,a5,a4
   10364:	0007ce0b          	lhit	ft8,0(a5)
   10368:	a00e16d3          	flt.s	a3,ft8,ft0
   1036c:	e00f8753          	fmv.x.w	a4,ft11
   10370:	ff0007b7          	lui	a5,0xff000
   10374:	ec0692e3          	bnez	a3,10238 <main+0x188>
   10378:	ff0007b7          	lui	a5,0xff000
   1037c:	fb5ff06f          	j	10330 <main+0x280>
   10380:	03813083          	ld	ra,56(sp)
   10384:	03013403          	ld	s0,48(sp)
   10388:	00000513          	li	a0,0
   1038c:	04010113          	add	sp,sp,64
   10390:	00008067          	ret

0000000000010394 <_Z17intersect_treeletRK7TreeletRKN3rtm3RayERNS2_3HitEPjRj>:
   10394:	000127b7          	lui	a5,0x12
   10398:	c407a587          	flw	fa1,-960(a5) # 11c40 <__DATA_BEGIN__>
   1039c:	0105a207          	flw	ft4,16(a1) # ffffffffff000010 <__global_pointer$+0xfffffffffefedbd0>
   103a0:	0145a287          	flw	ft5,20(a1)
   103a4:	0185a307          	flw	ft6,24(a1)
   103a8:	1845f553          	fdiv.s	fa0,fa1,ft4
   103ac:	ca010113          	add	sp,sp,-864
   103b0:	0005a607          	flw	fa2,0(a1)
   103b4:	0045a707          	flw	fa4,4(a1)
   103b8:	02052787          	flw	fa5,32(a0)
   103bc:	02452107          	flw	ft2,36(a0)
   103c0:	34812e27          	fsw	fs0,860(sp)
   103c4:	34912c27          	fsw	fs1,856(sp)
   103c8:	03052407          	flw	fs0,48(a0)
   103cc:	02c52487          	flw	fs1,44(a0)
   103d0:	08c7f7d3          	fsub.s	fa5,fa5,fa2
   103d4:	08e17153          	fsub.s	ft2,ft2,fa4
   103d8:	08c4f4d3          	fsub.s	fs1,fs1,fa2
   103dc:	08e47453          	fsub.s	fs0,fs0,fa4
   103e0:	0085a687          	flw	fa3,8(a1)
   103e4:	02852807          	flw	fa6,40(a0)
   103e8:	03452887          	flw	fa7,52(a0)
   103ec:	00c5a187          	flw	ft3,12(a1)
   103f0:	08d87853          	fsub.s	fa6,fa6,fa3
   103f4:	08d8f8d3          	fsub.s	fa7,fa7,fa3
   103f8:	1855f053          	fdiv.s	ft0,fa1,ft5
   103fc:	10a4f4d3          	fmul.s	fs1,fs1,fa0
   10400:	10a7f7d3          	fmul.s	fa5,fa5,fa0
   10404:	01c5a087          	flw	ft1,28(a1)
   10408:	00050813          	mv	a6,a0
   1040c:	289783d3          	fmin.s	ft7,fa5,fs1
   10410:	289797d3          	fmax.s	fa5,fa5,fs1
   10414:	1865f5d3          	fdiv.s	fa1,fa1,ft6
   10418:	10017153          	fmul.s	ft2,ft2,ft0
   1041c:	10047453          	fmul.s	fs0,fs0,ft0
   10420:	288104d3          	fmin.s	fs1,ft2,fs0
   10424:	28811153          	fmax.s	ft2,ft2,fs0
   10428:	289393d3          	fmax.s	ft7,ft7,fs1
   1042c:	282787d3          	fmin.s	fa5,fa5,ft2
   10430:	283393d3          	fmax.s	ft7,ft7,ft3
   10434:	281787d3          	fmin.s	fa5,fa5,ft1
   10438:	10b87153          	fmul.s	ft2,fa6,fa1
   1043c:	10b8f8d3          	fmul.s	fa7,fa7,fa1
   10440:	29110853          	fmin.s	fa6,ft2,fa7
   10444:	29111153          	fmax.s	ft2,ft2,fa7
   10448:	290393d3          	fmax.s	ft7,ft7,fa6
   1044c:	282787d3          	fmin.s	fa5,fa5,ft2
   10450:	a07795d3          	flt.s	a1,fa5,ft7
   10454:	36059263          	bnez	a1,107b8 <_Z17intersect_treeletRK7TreeletRKN3rtm3RayERNS2_3HitEPjRj+0x424>
   10458:	a03795d3          	flt.s	a1,fa5,ft3
   1045c:	34059e63          	bnez	a1,107b8 <_Z17intersect_treeletRK7TreeletRKN3rtm3RayERNS2_3HitEPjRj+0x424>
   10460:	00062107          	flw	ft2,0(a2)
   10464:	02712827          	fsw	ft7,48(sp)
   10468:	00000513          	li	a0,0
   1046c:	a07105d3          	fle.s	a1,ft2,ft7
   10470:	32059c63          	bnez	a1,107a8 <_Z17intersect_treeletRK7TreeletRKN3rtm3RayERNS2_3HitEPjRj+0x414>
   10474:	03882883          	lw	a7,56(a6)
   10478:	03c82583          	lw	a1,60(a6)
   1047c:	c407a387          	flw	ft7,-960(a5)
   10480:	f0000853          	fmv.w.x	fa6,zero
   10484:	40000337          	lui	t1,0x40000
   10488:	03112a23          	sw	a7,52(sp)
   1048c:	35212a27          	fsw	fs2,852(sp)
   10490:	35312827          	fsw	fs3,848(sp)
   10494:	35412627          	fsw	fs4,844(sp)
   10498:	35512427          	fsw	fs5,840(sp)
   1049c:	35612227          	fsw	fs6,836(sp)
   104a0:	35712027          	fsw	fs7,832(sp)
   104a4:	33812e27          	fsw	fs8,828(sp)
   104a8:	33912c27          	fsw	fs9,824(sp)
   104ac:	33a12a27          	fsw	fs10,820(sp)
   104b0:	33b12827          	fsw	fs11,816(sp)
   104b4:	02b12c23          	sw	a1,56(sp)
   104b8:	00100893          	li	a7,1
   104bc:	fff30313          	add	t1,t1,-1 # 3fffffff <__global_pointer$+0x3ffedbbf>
   104c0:	fff8889b          	addw	a7,a7,-1
   104c4:	02089593          	sll	a1,a7,0x20
   104c8:	0205d593          	srl	a1,a1,0x20
   104cc:	00159793          	sll	a5,a1,0x1
   104d0:	00b787b3          	add	a5,a5,a1
   104d4:	00279793          	sll	a5,a5,0x2
   104d8:	33078793          	add	a5,a5,816
   104dc:	002787b3          	add	a5,a5,sp
   104e0:	d007a583          	lw	a1,-768(a5)
   104e4:	d047ae83          	lw	t4,-764(a5)
   104e8:	d087ae03          	lw	t3,-760(a5)
   104ec:	f00587d3          	fmv.w.x	fa5,a1
   104f0:	02b12023          	sw	a1,32(sp)
   104f4:	03d12223          	sw	t4,36(sp)
   104f8:	a0f107d3          	fle.s	a5,ft2,fa5
   104fc:	03c12423          	sw	t3,40(sp)
   10500:	00078863          	beqz	a5,10510 <_Z17intersect_treeletRK7TreeletRKN3rtm3RayERNS2_3HitEPjRj+0x17c>
   10504:	26088e63          	beqz	a7,10780 <_Z17intersect_treeletRK7TreeletRKN3rtm3RayERNS2_3HitEPjRj+0x3ec>
   10508:	00062107          	flw	ft2,0(a2)
   1050c:	fb5ff06f          	j	104c0 <_Z17intersect_treeletRK7TreeletRKN3rtm3RayERNS2_3HitEPjRj+0x12c>
   10510:	000e879b          	sext.w	a5,t4
   10514:	0017f593          	and	a1,a5,1
   10518:	0e059c63          	bnez	a1,10610 <_Z17intersect_treeletRK7TreeletRKN3rtm3RayERNS2_3HitEPjRj+0x27c>
   1051c:	0027f593          	and	a1,a5,2
   10520:	02813783          	ld	a5,40(sp)
   10524:	02013e03          	ld	t3,32(sp)
   10528:	0027d793          	srl	a5,a5,0x2
   1052c:	0067f7b3          	and	a5,a5,t1
   10530:	022e5f93          	srl	t6,t3,0x22
   10534:	00078f1b          	sext.w	t5,a5
   10538:	000f8e93          	mv	t4,t6
   1053c:	000f0793          	mv	a5,t5
   10540:	38058463          	beqz	a1,108c8 <_Z17intersect_treeletRK7TreeletRKN3rtm3RayERNS2_3HitEPjRj+0x534>
   10544:	00072e03          	lw	t3,0(a4)
   10548:	020e1293          	sll	t0,t3,0x20
   1054c:	001e059b          	addw	a1,t3,1
   10550:	01e2de13          	srl	t3,t0,0x1e
   10554:	00b72023          	sw	a1,0(a4)
   10558:	01c68e33          	add	t3,a3,t3
   1055c:	01fe2023          	sw	t6,0(t3)
   10560:	20108453          	fmv.s	fs0,ft1
   10564:	02812583          	lw	a1,40(sp)
   10568:	0025f593          	and	a1,a1,2
   1056c:	2c058263          	beqz	a1,10830 <_Z17intersect_treeletRK7TreeletRKN3rtm3RayERNS2_3HitEPjRj+0x49c>
   10570:	00072e03          	lw	t3,0(a4)
   10574:	020e1f93          	sll	t6,t3,0x20
   10578:	001e059b          	addw	a1,t3,1
   1057c:	01efde13          	srl	t3,t6,0x1e
   10580:	00b72023          	sw	a1,0(a4)
   10584:	01c68e33          	add	t3,a3,t3
   10588:	01ee2023          	sw	t5,0(t3)
   1058c:	201088d3          	fmv.s	fa7,ft1
   10590:	a11415d3          	flt.s	a1,fs0,fa7
   10594:	22058663          	beqz	a1,107c0 <_Z17intersect_treeletRK7TreeletRKN3rtm3RayERNS2_3HitEPjRj+0x42c>
   10598:	a02895d3          	flt.s	a1,fa7,ft2
   1059c:	3c058863          	beqz	a1,1096c <_Z17intersect_treeletRK7TreeletRKN3rtm3RayERNS2_3HitEPjRj+0x5d8>
   105a0:	00178793          	add	a5,a5,1
   105a4:	02089e13          	sll	t3,a7,0x20
   105a8:	00579793          	sll	a5,a5,0x5
   105ac:	020e5e13          	srl	t3,t3,0x20
   105b0:	00f807b3          	add	a5,a6,a5
   105b4:	0187b583          	ld	a1,24(a5)
   105b8:	001e1793          	sll	a5,t3,0x1
   105bc:	01c787b3          	add	a5,a5,t3
   105c0:	00279793          	sll	a5,a5,0x2
   105c4:	33078793          	add	a5,a5,816
   105c8:	002787b3          	add	a5,a5,sp
   105cc:	4205de13          	sra	t3,a1,0x20
   105d0:	00b13023          	sd	a1,0(sp)
   105d4:	d117a027          	fsw	fa7,-768(a5)
   105d8:	d0b7a223          	sw	a1,-764(a5)
   105dc:	d1c7a423          	sw	t3,-760(a5)
   105e0:	0018889b          	addw	a7,a7,1
   105e4:	001e8e13          	add	t3,t4,1
   105e8:	005e1e13          	sll	t3,t3,0x5
   105ec:	01c80e33          	add	t3,a6,t3
   105f0:	018e3783          	ld	a5,24(t3)
   105f4:	4207d593          	sra	a1,a5,0x20
   105f8:	00f13423          	sd	a5,8(sp)
   105fc:	02f12223          	sw	a5,36(sp)
   10600:	02b12423          	sw	a1,40(sp)
   10604:	02412783          	lw	a5,36(sp)
   10608:	0017f593          	and	a1,a5,1
   1060c:	f00588e3          	beqz	a1,1051c <_Z17intersect_treeletRK7TreeletRKN3rtm3RayERNS2_3HitEPjRj+0x188>
   10610:	02013783          	ld	a5,32(sp)
   10614:	0217d593          	srl	a1,a5,0x21
   10618:	0075f593          	and	a1,a1,7
   1061c:	0247d793          	srl	a5,a5,0x24
   10620:	00158593          	add	a1,a1,1
   10624:	03079793          	sll	a5,a5,0x30
   10628:	0307d793          	srl	a5,a5,0x30
   1062c:	00259e13          	sll	t3,a1,0x2
   10630:	00279793          	sll	a5,a5,0x2
   10634:	00be0e33          	add	t3,t3,a1
   10638:	00f807b3          	add	a5,a6,a5
   1063c:	003e1e13          	sll	t3,t3,0x3
   10640:	00fe0e33          	add	t3,t3,a5
   10644:	0187ac87          	flw	fs9,24(a5)
   10648:	0207ac07          	flw	fs8,32(a5)
   1064c:	0147a987          	flw	fs3,20(a5)
   10650:	0007a407          	flw	fs0,0(a5)
   10654:	01c7ab07          	flw	fs6,28(a5)
   10658:	0989f9d3          	fsub.s	fs3,fs3,fs8
   1065c:	09947453          	fsub.s	fs0,fs0,fs9
   10660:	00c7a907          	flw	fs2,12(a5)
   10664:	0107a487          	flw	fs1,16(a5)
   10668:	0087ab87          	flw	fs7,8(a5)
   1066c:	09997953          	fsub.s	fs2,fs2,fs9
   10670:	0964f4d3          	fsub.s	fs1,fs1,fs6
   10674:	098bfbd3          	fsub.s	fs7,fs7,fs8
   10678:	1089fa53          	fmul.s	fs4,fs3,fs0
   1067c:	0047a787          	flw	fa5,4(a5)
   10680:	1174f8d3          	fmul.s	fa7,fs1,fs7
   10684:	0967f7d3          	fsub.s	fa5,fa5,fs6
   10688:	a1797a47          	fmsub.s	fs4,fs2,fs7,fs4
   1068c:	88f9f8c7          	fmsub.s	fa7,fs3,fa5,fa7
   10690:	10f97153          	fmul.s	ft2,fs2,fa5
   10694:	114a7a53          	fmul.s	fs4,fs4,fs4
   10698:	1084f147          	fmsub.s	ft2,fs1,fs0,ft2
   1069c:	a118f8c3          	fmadd.s	fa7,fa7,fa7,fs4
   106a0:	88217143          	fmadd.s	ft2,ft2,ft2,fa7
   106a4:	58017153          	fsqrt.s	ft2,ft2
   106a8:	1049f153          	fmul.s	ft2,fs3,ft4
   106ac:	1064fd53          	fmul.s	fs10,fs1,ft6
   106b0:	105978d3          	fmul.s	fa7,fs2,ft5
   106b4:	09677b53          	fsub.s	fs6,fa4,fs6
   106b8:	09967cd3          	fsub.s	fs9,fa2,fs9
   106bc:	10697147          	fmsub.s	ft2,fs2,ft6,ft2
   106c0:	d059fd47          	fmsub.s	fs10,fs3,ft5,fs10
   106c4:	8844f8c7          	fmsub.s	fa7,fs1,ft4,fa7
   106c8:	0986fc53          	fsub.s	fs8,fa3,fs8
   106cc:	11647a53          	fmul.s	fs4,fs0,fs6
   106d0:	1027fad3          	fmul.s	fs5,fa5,ft2
   106d4:	119bfdd3          	fmul.s	fs11,fs7,fs9
   106d8:	11617153          	fmul.s	ft2,ft2,fs6
   106dc:	a197fa47          	fmsub.s	fs4,fa5,fs9,fs4
   106e0:	a9a47ac3          	fmadd.s	fs5,fs0,fs10,fs5
   106e4:	1187f7d3          	fmul.s	fa5,fa5,fs8
   106e8:	119d7143          	fmadd.s	ft2,fs10,fs9,ft2
   106ec:	d9847447          	fmsub.s	fs0,fs0,fs8,fs11
   106f0:	a91bfac3          	fmadd.s	fs5,fs7,fa7,fs5
   106f4:	796bf7c7          	fmsub.s	fa5,fs7,fs6,fa5
   106f8:	1188f8c3          	fmadd.s	fa7,fa7,fs8,ft2
   106fc:	1082f153          	fmul.s	ft2,ft5,fs0
   10700:	1953fad3          	fdiv.s	fs5,ft7,fs5
   10704:	10f27143          	fmadd.s	ft2,ft4,fa5,ft2
   10708:	11437143          	fmadd.s	ft2,ft6,fs4,ft2
   1070c:	111af8d3          	fmul.s	fa7,fs5,fa7
   10710:	102af153          	fmul.s	ft2,fs5,ft2
   10714:	a10895d3          	flt.s	a1,fa7,fa6
   10718:	a1139ed3          	flt.s	t4,ft7,fa7
   1071c:	a1011f53          	flt.s	t5,ft2,fa6
   10720:	04059a63          	bnez	a1,10774 <_Z17intersect_treeletRK7TreeletRKN3rtm3RayERNS2_3HitEPjRj+0x3e0>
   10724:	0028fb53          	fadd.s	fs6,fa7,ft2
   10728:	040e9663          	bnez	t4,10774 <_Z17intersect_treeletRK7TreeletRKN3rtm3RayERNS2_3HitEPjRj+0x3e0>
   1072c:	1084f4d3          	fmul.s	fs1,fs1,fs0
   10730:	040f1263          	bnez	t5,10774 <_Z17intersect_treeletRK7TreeletRKN3rtm3RayERNS2_3HitEPjRj+0x3e0>
   10734:	a16395d3          	flt.s	a1,ft7,fs6
   10738:	48f97943          	fmadd.s	fs2,fs2,fa5,fs1
   1073c:	02059c63          	bnez	a1,10774 <_Z17intersect_treeletRK7TreeletRKN3rtm3RayERNS2_3HitEPjRj+0x3e0>
   10740:	9149f9c3          	fmadd.s	fs3,fs3,fs4,fs2
   10744:	113afad3          	fmul.s	fs5,fs5,fs3
   10748:	a03a95d3          	flt.s	a1,fs5,ft3
   1074c:	02059463          	bnez	a1,10774 <_Z17intersect_treeletRK7TreeletRKN3rtm3RayERNS2_3HitEPjRj+0x3e0>
   10750:	00062787          	flw	fa5,0(a2)
   10754:	a15795d3          	flt.s	a1,fa5,fs5
   10758:	00059e63          	bnez	a1,10774 <_Z17intersect_treeletRK7TreeletRKN3rtm3RayERNS2_3HitEPjRj+0x3e0>
   1075c:	0247a583          	lw	a1,36(a5)
   10760:	00100513          	li	a0,1
   10764:	01162227          	fsw	fa7,4(a2)
   10768:	00262427          	fsw	ft2,8(a2)
   1076c:	01562027          	fsw	fs5,0(a2)
   10770:	00b62623          	sw	a1,12(a2)
   10774:	02878793          	add	a5,a5,40
   10778:	ecfe16e3          	bne	t3,a5,10644 <_Z17intersect_treeletRK7TreeletRKN3rtm3RayERNS2_3HitEPjRj+0x2b0>
   1077c:	d80896e3          	bnez	a7,10508 <_Z17intersect_treeletRK7TreeletRKN3rtm3RayERNS2_3HitEPjRj+0x174>
   10780:	35412907          	flw	fs2,852(sp)
   10784:	35012987          	flw	fs3,848(sp)
   10788:	34c12a07          	flw	fs4,844(sp)
   1078c:	34812a87          	flw	fs5,840(sp)
   10790:	34412b07          	flw	fs6,836(sp)
   10794:	34012b87          	flw	fs7,832(sp)
   10798:	33c12c07          	flw	fs8,828(sp)
   1079c:	33812c87          	flw	fs9,824(sp)
   107a0:	33412d07          	flw	fs10,820(sp)
   107a4:	33012d87          	flw	fs11,816(sp)
   107a8:	35c12407          	flw	fs0,860(sp)
   107ac:	35812487          	flw	fs1,856(sp)
   107b0:	36010113          	add	sp,sp,864
   107b4:	00008067          	ret
   107b8:	201083d3          	fmv.s	ft7,ft1
   107bc:	ca5ff06f          	j	10460 <_Z17intersect_treeletRK7TreeletRKN3rtm3RayERNS2_3HitEPjRj+0xcc>
   107c0:	a02415d3          	flt.s	a1,fs0,ft2
   107c4:	18058e63          	beqz	a1,10960 <_Z17intersect_treeletRK7TreeletRKN3rtm3RayERNS2_3HitEPjRj+0x5cc>
   107c8:	001e8593          	add	a1,t4,1
   107cc:	00559593          	sll	a1,a1,0x5
   107d0:	02089e93          	sll	t4,a7,0x20
   107d4:	020ede93          	srl	t4,t4,0x20
   107d8:	00b805b3          	add	a1,a6,a1
   107dc:	0185be03          	ld	t3,24(a1)
   107e0:	001e9593          	sll	a1,t4,0x1
   107e4:	01d585b3          	add	a1,a1,t4
   107e8:	00259593          	sll	a1,a1,0x2
   107ec:	33058593          	add	a1,a1,816
   107f0:	002585b3          	add	a1,a1,sp
   107f4:	420e5e93          	sra	t4,t3,0x20
   107f8:	01c13823          	sd	t3,16(sp)
   107fc:	d085a027          	fsw	fs0,-768(a1)
   10800:	d1c5a223          	sw	t3,-764(a1)
   10804:	d1d5a423          	sw	t4,-760(a1)
   10808:	0018889b          	addw	a7,a7,1
   1080c:	00178793          	add	a5,a5,1
   10810:	00579793          	sll	a5,a5,0x5
   10814:	00f807b3          	add	a5,a6,a5
   10818:	0187b783          	ld	a5,24(a5)
   1081c:	4207d593          	sra	a1,a5,0x20
   10820:	00f13c23          	sd	a5,24(sp)
   10824:	02f12223          	sw	a5,36(sp)
   10828:	02b12423          	sw	a1,40(sp)
   1082c:	dd9ff06f          	j	10604 <_Z17intersect_treeletRK7TreeletRKN3rtm3RayERNS2_3HitEPjRj+0x270>
   10830:	0017859b          	addw	a1,a5,1
   10834:	00559593          	sll	a1,a1,0x5
   10838:	00b805b3          	add	a1,a6,a1
   1083c:	0005a787          	flw	fa5,0(a1)
   10840:	0045a907          	flw	fs2,4(a1)
   10844:	00c5aa87          	flw	fs5,12(a1)
   10848:	0105aa07          	flw	fs4,16(a1)
   1084c:	08c7f7d3          	fsub.s	fa5,fa5,fa2
   10850:	08e97953          	fsub.s	fs2,fs2,fa4
   10854:	08cafad3          	fsub.s	fs5,fs5,fa2
   10858:	08ea7a53          	fsub.s	fs4,fs4,fa4
   1085c:	0085a487          	flw	fs1,8(a1)
   10860:	0145a987          	flw	fs3,20(a1)
   10864:	10a7f7d3          	fmul.s	fa5,fa5,fa0
   10868:	10097953          	fmul.s	fs2,fs2,ft0
   1086c:	10aafad3          	fmul.s	fs5,fs5,fa0
   10870:	100a7a53          	fmul.s	fs4,fs4,ft0
   10874:	08d4f4d3          	fsub.s	fs1,fs1,fa3
   10878:	08d9f9d3          	fsub.s	fs3,fs3,fa3
   1087c:	295788d3          	fmin.s	fa7,fa5,fs5
   10880:	29490b53          	fmin.s	fs6,fs2,fs4
   10884:	295797d3          	fmax.s	fa5,fa5,fs5
   10888:	29491953          	fmax.s	fs2,fs2,fs4
   1088c:	10b4f4d3          	fmul.s	fs1,fs1,fa1
   10890:	10b9f9d3          	fmul.s	fs3,fs3,fa1
   10894:	292787d3          	fmin.s	fa5,fa5,fs2
   10898:	296898d3          	fmax.s	fa7,fa7,fs6
   1089c:	281787d3          	fmin.s	fa5,fa5,ft1
   108a0:	29348953          	fmin.s	fs2,fs1,fs3
   108a4:	283898d3          	fmax.s	fa7,fa7,ft3
   108a8:	293494d3          	fmax.s	fs1,fs1,fs3
   108ac:	292898d3          	fmax.s	fa7,fa7,fs2
   108b0:	289787d3          	fmin.s	fa5,fa5,fs1
   108b4:	a11795d3          	flt.s	a1,fa5,fa7
   108b8:	cc059ae3          	bnez	a1,1058c <_Z17intersect_treeletRK7TreeletRKN3rtm3RayERNS2_3HitEPjRj+0x1f8>
   108bc:	a03795d3          	flt.s	a1,fa5,ft3
   108c0:	cc0588e3          	beqz	a1,10590 <_Z17intersect_treeletRK7TreeletRKN3rtm3RayERNS2_3HitEPjRj+0x1fc>
   108c4:	cc9ff06f          	j	1058c <_Z17intersect_treeletRK7TreeletRKN3rtm3RayERNS2_3HitEPjRj+0x1f8>
   108c8:	001f8593          	add	a1,t6,1
   108cc:	00559593          	sll	a1,a1,0x5
   108d0:	00b805b3          	add	a1,a6,a1
   108d4:	0005a787          	flw	fa5,0(a1)
   108d8:	0045a487          	flw	fs1,4(a1)
   108dc:	00c5aa07          	flw	fs4,12(a1)
   108e0:	0105a987          	flw	fs3,16(a1)
   108e4:	08c7f7d3          	fsub.s	fa5,fa5,fa2
   108e8:	08e4f4d3          	fsub.s	fs1,fs1,fa4
   108ec:	08ca7a53          	fsub.s	fs4,fs4,fa2
   108f0:	08e9f9d3          	fsub.s	fs3,fs3,fa4
   108f4:	0085a887          	flw	fa7,8(a1)
   108f8:	0145a907          	flw	fs2,20(a1)
   108fc:	10a7f7d3          	fmul.s	fa5,fa5,fa0
   10900:	1004f4d3          	fmul.s	fs1,fs1,ft0
   10904:	10aa7a53          	fmul.s	fs4,fs4,fa0
   10908:	1009f9d3          	fmul.s	fs3,fs3,ft0
   1090c:	08d8f8d3          	fsub.s	fa7,fa7,fa3
   10910:	08d97953          	fsub.s	fs2,fs2,fa3
   10914:	29478453          	fmin.s	fs0,fa5,fs4
   10918:	29348ad3          	fmin.s	fs5,fs1,fs3
   1091c:	294797d3          	fmax.s	fa5,fa5,fs4
   10920:	293494d3          	fmax.s	fs1,fs1,fs3
   10924:	10b8f8d3          	fmul.s	fa7,fa7,fa1
   10928:	10b97953          	fmul.s	fs2,fs2,fa1
   1092c:	289787d3          	fmin.s	fa5,fa5,fs1
   10930:	29541453          	fmax.s	fs0,fs0,fs5
   10934:	281787d3          	fmin.s	fa5,fa5,ft1
   10938:	292884d3          	fmin.s	fs1,fa7,fs2
   1093c:	28341453          	fmax.s	fs0,fs0,ft3
   10940:	292898d3          	fmax.s	fa7,fa7,fs2
   10944:	28941453          	fmax.s	fs0,fs0,fs1
   10948:	291787d3          	fmin.s	fa5,fa5,fa7
   1094c:	a08795d3          	flt.s	a1,fa5,fs0
   10950:	c00598e3          	bnez	a1,10560 <_Z17intersect_treeletRK7TreeletRKN3rtm3RayERNS2_3HitEPjRj+0x1cc>
   10954:	a03795d3          	flt.s	a1,fa5,ft3
   10958:	c00586e3          	beqz	a1,10564 <_Z17intersect_treeletRK7TreeletRKN3rtm3RayERNS2_3HitEPjRj+0x1d0>
   1095c:	c05ff06f          	j	10560 <_Z17intersect_treeletRK7TreeletRKN3rtm3RayERNS2_3HitEPjRj+0x1cc>
   10960:	a02895d3          	flt.s	a1,fa7,ft2
   10964:	ea0594e3          	bnez	a1,1080c <_Z17intersect_treeletRK7TreeletRKN3rtm3RayERNS2_3HitEPjRj+0x478>
   10968:	b9dff06f          	j	10504 <_Z17intersect_treeletRK7TreeletRKN3rtm3RayERNS2_3HitEPjRj+0x170>
   1096c:	a02417d3          	flt.s	a5,fs0,ft2
   10970:	c6079ae3          	bnez	a5,105e4 <_Z17intersect_treeletRK7TreeletRKN3rtm3RayERNS2_3HitEPjRj+0x250>
   10974:	b91ff06f          	j	10504 <_Z17intersect_treeletRK7TreeletRKN3rtm3RayERNS2_3HitEPjRj+0x170>

0000000000010978 <_Z17intersect_bucketsPK7TreeletPN3rtm3HitE>:
   10978:	f3010113          	add	sp,sp,-208
   1097c:	0c813023          	sd	s0,192(sp)
   10980:	fff00413          	li	s0,-1
   10984:	0a913c23          	sd	s1,184(sp)
   10988:	0b213823          	sd	s2,176(sp)
   1098c:	0b313423          	sd	s3,168(sp)
   10990:	0b413023          	sd	s4,160(sp)
   10994:	09513c23          	sd	s5,152(sp)
   10998:	0c113423          	sd	ra,200(sp)
   1099c:	08812627          	fsw	fs0,140(sp)
   109a0:	08912427          	fsw	fs1,136(sp)
   109a4:	09212227          	fsw	fs2,132(sp)
   109a8:	00050913          	mv	s2,a0
   109ac:	00058493          	mv	s1,a1
   109b0:	02045993          	srl	s3,s0,0x20
   109b4:	00f00a93          	li	s5,15
   109b8:	00100a13          	li	s4,1
   109bc:	0000100b          	lwi	ft0,0(zero) # 0 <main-0x100b0>
   109c0:	e00407d3          	fmv.x.w	a5,fs0
   109c4:	e0048753          	fmv.x.w	a4,fs1
   109c8:	00012c27          	fsw	ft0,24(sp)
   109cc:	00f9f6b3          	and	a3,s3,a5
   109d0:	02071613          	sll	a2,a4,0x20
   109d4:	00c6e6b3          	or	a3,a3,a2
   109d8:	02079793          	sll	a5,a5,0x20
   109dc:	00112e27          	fsw	ft1,28(sp)
   109e0:	02212027          	fsw	ft2,32(sp)
   109e4:	02312227          	fsw	ft3,36(sp)
   109e8:	02412427          	fsw	ft4,40(sp)
   109ec:	02512627          	fsw	ft5,44(sp)
   109f0:	02612827          	fsw	ft6,48(sp)
   109f4:	02712a27          	fsw	ft7,52(sp)
   109f8:	0007071b          	sext.w	a4,a4
   109fc:	02d13c23          	sd	a3,56(sp)
   10a00:	0207d793          	srl	a5,a5,0x20
   10a04:	10870263          	beq	a4,s0,10b08 <_Z17intersect_bucketsPK7TreeletPN3rtm3HitE+0x190>
   10a08:	00479793          	sll	a5,a5,0x4
   10a0c:	00712427          	fsw	ft7,8(sp)
   10a10:	00f487b3          	add	a5,s1,a5
   10a14:	0007ce0b          	lhit	ft8,0(a5)
   10a18:	03c16783          	lwu	a5,60(sp)
   10a1c:	00410713          	add	a4,sp,4
   10a20:	04010693          	add	a3,sp,64
   10a24:	00379513          	sll	a0,a5,0x3
   10a28:	40f50533          	sub	a0,a0,a5
   10a2c:	00d51513          	sll	a0,a0,0xd
   10a30:	00810613          	add	a2,sp,8
   10a34:	01810593          	add	a1,sp,24
   10a38:	00a90533          	add	a0,s2,a0
   10a3c:	01c12427          	fsw	ft8,8(sp)
   10a40:	01d12627          	fsw	ft9,12(sp)
   10a44:	01e12827          	fsw	ft10,16(sp)
   10a48:	01f12a27          	fsw	ft11,20(sp)
   10a4c:	00012223          	sw	zero,4(sp)
   10a50:	00000097          	auipc	ra,0x0
   10a54:	944080e7          	jalr	-1724(ra) # 10394 <_Z17intersect_treeletRK7TreeletRKN3rtm3RayERNS2_3HitEPjRj>
   10a58:	02050a63          	beqz	a0,10a8c <_Z17intersect_bucketsPK7TreeletPN3rtm3HitE+0x114>
   10a5c:	01412783          	lw	a5,20(sp)
   10a60:	02878663          	beq	a5,s0,10a8c <_Z17intersect_bucketsPK7TreeletPN3rtm3HitE+0x114>
   10a64:	03816703          	lwu	a4,56(sp)
   10a68:	00812787          	flw	fa5,8(sp)
   10a6c:	00c12807          	flw	fa6,12(sp)
   10a70:	00471713          	sll	a4,a4,0x4
   10a74:	00e48733          	add	a4,s1,a4
   10a78:	01012887          	flw	fa7,16(sp)
   10a7c:	f0078953          	fmv.w.x	fs2,a5
   10a80:	00f7300b          	cshit	fa5,0(a4)
   10a84:	00812787          	flw	fa5,8(sp)
   10a88:	02f12a27          	fsw	fa5,52(sp)
   10a8c:	00412703          	lw	a4,4(sp)
   10a90:	f20706e3          	beqz	a4,109bc <_Z17intersect_bucketsPK7TreeletPN3rtm3HitE+0x44>
   10a94:	fff7069b          	addw	a3,a4,-1
   10a98:	02069793          	sll	a5,a3,0x20
   10a9c:	01812007          	flw	ft0,24(sp)
   10aa0:	01c12087          	flw	ft1,28(sp)
   10aa4:	02012107          	flw	ft2,32(sp)
   10aa8:	02412187          	flw	ft3,36(sp)
   10aac:	02812207          	flw	ft4,40(sp)
   10ab0:	02c12287          	flw	ft5,44(sp)
   10ab4:	03012307          	flw	ft6,48(sp)
   10ab8:	03412387          	flw	ft7,52(sp)
   10abc:	03812407          	flw	fs0,56(sp)
   10ac0:	01e7d613          	srl	a2,a5,0x1e
   10ac4:	04010793          	add	a5,sp,64
   10ac8:	00c78633          	add	a2,a5,a2
   10acc:	00062783          	lw	a5,0(a2)
   10ad0:	40da873b          	subw	a4,s5,a3
   10ad4:	00ea173b          	sllw	a4,s4,a4
   10ad8:	0107171b          	sllw	a4,a4,0x10
   10adc:	00e7e7b3          	or	a5,a5,a4
   10ae0:	0007879b          	sext.w	a5,a5
   10ae4:	f00784d3          	fmv.w.x	fs1,a5
   10ae8:	0006871b          	sext.w	a4,a3
   10aec:	00d12223          	sw	a3,4(sp)
   10af0:	02f12e23          	sw	a5,60(sp)
   10af4:	1000200b          	swi	ft0,256(zero) # 100 <main-0xffb0>
   10af8:	ffc60613          	add	a2,a2,-4
   10afc:	ec0700e3          	beqz	a4,109bc <_Z17intersect_bucketsPK7TreeletPN3rtm3HitE+0x44>
   10b00:	fff7069b          	addw	a3,a4,-1
   10b04:	fc9ff06f          	j	10acc <_Z17intersect_bucketsPK7TreeletPN3rtm3HitE+0x154>
   10b08:	0c813083          	ld	ra,200(sp)
   10b0c:	0c013403          	ld	s0,192(sp)
   10b10:	0b813483          	ld	s1,184(sp)
   10b14:	0b013903          	ld	s2,176(sp)
   10b18:	0a813983          	ld	s3,168(sp)
   10b1c:	0a013a03          	ld	s4,160(sp)
   10b20:	09813a83          	ld	s5,152(sp)
   10b24:	08c12407          	flw	fs0,140(sp)
   10b28:	08812487          	flw	fs1,136(sp)
   10b2c:	08412907          	flw	fs2,132(sp)
   10b30:	0d010113          	add	sp,sp,208
   10b34:	00008067          	ret
