
./riscv/path-tracer:     file format elf64-littleriscv
./riscv/path-tracer
architecture: riscv:rv64, flags 0x00000112:
EXEC_P, HAS_SYMS, D_PAGED
start address 0x00000000000100b0

Program Header:
0x70000003 off    0x000000000000238b vaddr 0x0000000000000000 paddr 0x0000000000000000 align 2**0
         filesz 0x000000000000003d memsz 0x0000000000000000 flags r--
    LOAD off    0x0000000000000000 vaddr 0x0000000000010000 paddr 0x0000000000010000 align 2**12
         filesz 0x000000000000237c memsz 0x000000000000237c flags r-x

Sections:
Idx Name          Size      VMA               LMA               File off  Algn
  0 .text         000011d8  00000000000100b0  00000000000100b0  000000b0  2**2
                  CONTENTS, ALLOC, LOAD, READONLY, CODE
  1 .eh_frame     000000c4  0000000000011288  0000000000011288  00001288  2**3
                  CONTENTS, ALLOC, LOAD, READONLY, DATA
  2 .sdata        00000030  000000000001234c  000000000001234c  0000234c  2**2
                  CONTENTS, ALLOC, LOAD, READONLY, DATA
  3 .comment      0000000f  0000000000000000  0000000000000000  0000237c  2**0
                  CONTENTS, READONLY
  4 .riscv.attributes 0000003d  0000000000000000  0000000000000000  0000238b  2**0
                  CONTENTS, READONLY
SYMBOL TABLE:
00000000000100b0 l    d  .text	0000000000000000 .text
0000000000011288 l    d  .eh_frame	0000000000000000 .eh_frame
000000000001234c l    d  .sdata	0000000000000000 .sdata
0000000000000000 l    d  .comment	0000000000000000 .comment
0000000000000000 l    d  .riscv.attributes	0000000000000000 .riscv.attributes
0000000000000000 l    df *ABS*	0000000000000000 path-tracer.cpp
00000000000100cc l     F .text	00000000000011bc _ZL11path_tracerRK10KernelArgs.constprop.0
0000000000012b4c g       *ABS*	0000000000000000 __global_pointer$
000000000001234c g       .sdata	0000000000000000 __SDATA_BEGIN__
0000000000012380 g       .sdata	0000000000000000 __BSS_END__
000000000001237c g       .sdata	0000000000000000 __bss_start
00000000000100b0 g     F .text	000000000000001c main
000000000001234c g       .sdata	0000000000000000 __DATA_BEGIN__
000000000001237c g       .sdata	0000000000000000 _edata
0000000000012380 g       .sdata	0000000000000000 _end



Disassembly of section .text:

00000000000100b0 <main>:
   100b0:	ff010113          	add	sp,sp,-16
   100b4:	00113423          	sd	ra,8(sp)
   100b8:	014000ef          	jal	100cc <_ZL11path_tracerRK10KernelArgs.constprop.0>
   100bc:	00813083          	ld	ra,8(sp)
   100c0:	00000513          	li	a0,0
   100c4:	01010113          	add	sp,sp,16
   100c8:	00008067          	ret

00000000000100cc <_ZL11path_tracerRK10KernelArgs.constprop.0>:
   100cc:	0000058b          	fchthrd	a1
   100d0:	10802783          	lw	a5,264(zero) # 108 <main-0xffa8>
   100d4:	0005859b          	sext.w	a1,a1
   100d8:	00f5e463          	bltu	a1,a5,100e0 <_ZL11path_tracerRK10KernelArgs.constprop.0+0x14>
   100dc:	1a80106f          	j	11284 <_ZL11path_tracerRK10KernelArgs.constprop.0+0x11b8>
   100e0:	dd010113          	add	sp,sp,-560
   100e4:	1b812e27          	fsw	fs8,444(sp)
   100e8:	8101ac07          	flw	fs8,-2032(gp) # 1235c <__DATA_BEGIN__+0x10>
   100ec:	00012337          	lui	t1,0x12
   100f0:	1b912c27          	fsw	fs9,440(sp)
   100f4:	1ba12a27          	fsw	fs10,436(sp)
   100f8:	1bb12827          	fsw	fs11,432(sp)
   100fc:	11003803          	ld	a6,272(zero) # 110 <main-0xffa0>
   10100:	35032c87          	flw	fs9,848(t1) # 12350 <__DATA_BEGIN__+0x4>
   10104:	8141ad07          	flw	fs10,-2028(gp) # 12360 <__DATA_BEGIN__+0x14>
   10108:	8201ad87          	flw	fs11,-2016(gp) # 1236c <__DATA_BEGIN__+0x20>
   1010c:	22813423          	sd	s0,552(sp)
   10110:	22913023          	sd	s1,544(sp)
   10114:	21213c23          	sd	s2,536(sp)
   10118:	21313823          	sd	s3,528(sp)
   1011c:	21413423          	sd	s4,520(sp)
   10120:	21513023          	sd	s5,512(sp)
   10124:	1f613c23          	sd	s6,504(sp)
   10128:	1f713823          	sd	s7,496(sp)
   1012c:	1f813423          	sd	s8,488(sp)
   10130:	1f913023          	sd	s9,480(sp)
   10134:	1c812e27          	fsw	fs0,476(sp)
   10138:	1c912c27          	fsw	fs1,472(sp)
   1013c:	1d212a27          	fsw	fs2,468(sp)
   10140:	1d312827          	fsw	fs3,464(sp)
   10144:	1d412627          	fsw	fs4,460(sp)
   10148:	1d512427          	fsw	fs5,456(sp)
   1014c:	1d612227          	fsw	fs6,452(sp)
   10150:	1d712027          	fsw	fs7,448(sp)
   10154:	00000893          	li	a7,0
   10158:	00196537          	lui	a0,0x196
   1015c:	60d5051b          	addw	a0,a0,1549 # 19660d <__global_pointer$+0x183ac1>
   10160:	02a5853b          	mulw	a0,a1,a0
   10164:	10002783          	lw	a5,256(zero) # 100 <main-0xffb0>
   10168:	11802903          	lw	s2,280(zero) # 118 <main-0xff98>
   1016c:	3c6ef737          	lui	a4,0x3c6ef
   10170:	35f7071b          	addw	a4,a4,863 # 3c6ef35f <__global_pointer$+0x3c6dc813>
   10174:	02f5f6bb          	remuw	a3,a1,a5
   10178:	00e5053b          	addw	a0,a0,a4
   1017c:	02f5d7bb          	divuw	a5,a1,a5
   10180:	00091463          	bnez	s2,10188 <_ZL11path_tracerRK10KernelArgs.constprop.0+0xbc>
   10184:	0f80106f          	j	1127c <_ZL11path_tracerRK10KernelArgs.constprop.0+0x11b0>
   10188:	8081a787          	flw	fa5,-2040(gp) # 12354 <__DATA_BEGIN__+0x8>
   1018c:	d017f753          	fcvt.s.wu	fa4,a5
   10190:	d016f6d3          	fcvt.s.wu	fa3,a3
   10194:	00f77153          	fadd.s	ft2,fa4,fa5
   10198:	15802607          	flw	fa2,344(zero) # 158 <main-0xff58>
   1019c:	16c02207          	flw	ft4,364(zero) # 16c <main-0xff44>
   101a0:	17402887          	flw	fa7,372(zero) # 174 <main-0xff3c>
   101a4:	17802e07          	flw	ft8,376(zero) # 178 <main-0xff38>
   101a8:	15002907          	flw	fs2,336(zero) # 150 <main-0xff60>
   101ac:	00f6f0d3          	fadd.s	ft1,fa3,fa5
   101b0:	80c1a787          	flw	fa5,-2036(gp) # 12358 <__DATA_BEGIN__+0xc>
   101b4:	15c02187          	flw	ft3,348(zero) # 15c <main-0xff54>
   101b8:	16002687          	flw	fa3,352(zero) # 160 <main-0xff50>
   101bc:	16402707          	flw	fa4,356(zero) # 164 <main-0xff4c>
   101c0:	16802007          	flw	ft0,360(zero) # 168 <main-0xff48>
   101c4:	17002287          	flw	ft5,368(zero) # 170 <main-0xff40>
   101c8:	14c02e87          	flw	ft9,332(zero) # 14c <main-0xff64>
   101cc:	15402987          	flw	fs3,340(zero) # 154 <main-0xff5c>
   101d0:	11c02283          	lw	t0,284(zero) # 11c <main-0xff94>
   101d4:	20c605d3          	fmv.s	fa1,fa2
   101d8:	08f12e27          	fsw	fa5,156(sp)
   101dc:	21ce0653          	fmv.s	fa2,ft8
   101e0:	204207d3          	fmv.s	fa5,ft4
   101e4:	20210f53          	fmv.s	ft10,ft2
   101e8:	21188253          	fmv.s	ft4,fa7
   101ec:	212908d3          	fmv.s	fa7,fs2
   101f0:	00012a23          	sw	zero,20(sp)
   101f4:	00012c23          	sw	zero,24(sp)
   101f8:	00012e23          	sw	zero,28(sp)
   101fc:	00000413          	li	s0,0
   10200:	00012eb7          	lui	t4,0x12
   10204:	09c12307          	flw	ft6,156(sp)
   10208:	14802107          	flw	ft2,328(zero) # 148 <main-0xff68>
   1020c:	14402507          	flw	fa0,324(zero) # 144 <main-0xff6c>
   10210:	31e17143          	fmadd.s	ft2,ft2,ft10,ft6
   10214:	30157543          	fmadd.s	fa0,fa0,ft1,ft6
   10218:	100173d3          	fmul.s	ft7,ft2,ft0
   1021c:	10f17353          	fmul.s	ft6,ft2,fa5
   10220:	10e17153          	fmul.s	ft2,ft2,fa4
   10224:	383573c3          	fmadd.s	ft7,fa0,ft3,ft7
   10228:	30d57343          	fmadd.s	ft6,fa0,fa3,ft6
   1022c:	10b57543          	fmadd.s	fa0,fa0,fa1,ft2
   10230:	0843ffd3          	fsub.s	ft11,ft7,ft4
   10234:	08c37b53          	fsub.s	fs6,ft6,fa2
   10238:	08557553          	fsub.s	fa0,fa0,ft5
   1023c:	5a028ce3          	beqz	t0,10ff4 <_ZL11path_tracerRK10KernelArgs.constprop.0+0xf28>
   10240:	13003b83          	ld	s7,304(zero) # 130 <main-0xff80>
   10244:	34ceaa87          	flw	fs5,844(t4) # 1234c <__DATA_BEGIN__>
   10248:	09e12c27          	fsw	ft10,152(sp)
   1024c:	000ba107          	flw	ft2,0(s7)
   10250:	21188853          	fmv.s	fa6,fa7
   10254:	21de8bd3          	fmv.s	fs7,ft9
   10258:	02212227          	fsw	ft2,36(sp)
   1025c:	004ba107          	flw	ft2,4(s7)
   10260:	35032a07          	flw	fs4,848(t1)
   10264:	20a50f53          	fmv.s	ft10,fa0
   10268:	02212427          	fsw	ft2,40(sp)
   1026c:	008ba107          	flw	ft2,8(s7)
   10270:	00000f13          	li	t5,0
   10274:	01312827          	fsw	fs3,16(sp)
   10278:	02212627          	fsw	ft2,44(sp)
   1027c:	00cba107          	flw	ft2,12(s7)
   10280:	06b12227          	fsw	fa1,100(sp)
   10284:	06312427          	fsw	ft3,104(sp)
   10288:	02212827          	fsw	ft2,48(sp)
   1028c:	010ba107          	flw	ft2,16(s7)
   10290:	06d12627          	fsw	fa3,108(sp)
   10294:	06e12827          	fsw	fa4,112(sp)
   10298:	02212027          	fsw	ft2,32(sp)
   1029c:	014ba107          	flw	ft2,20(s7)
   102a0:	06012a27          	fsw	ft0,116(sp)
   102a4:	06f12c27          	fsw	fa5,120(sp)
   102a8:	02212a27          	fsw	ft2,52(sp)
   102ac:	06512e27          	fsw	ft5,124(sp)
   102b0:	08412027          	fsw	ft4,128(sp)
   102b4:	08c12227          	fsw	fa2,132(sp)
   102b8:	09d12427          	fsw	ft9,136(sp)
   102bc:	09112627          	fsw	fa7,140(sp)
   102c0:	09312827          	fsw	fs3,144(sp)
   102c4:	08112a27          	fsw	ft1,148(sp)
   102c8:	000127b7          	lui	a5,0x12
   102cc:	34c7a107          	flw	ft2,844(a5) # 1234c <__DATA_BEGIN__>
   102d0:	02812707          	flw	fa4,40(sp)
   102d4:	02412787          	flw	fa5,36(sp)
   102d8:	19e172d3          	fdiv.s	ft5,ft2,ft10
   102dc:	090776d3          	fsub.s	fa3,fa4,fa6
   102e0:	03012707          	flw	fa4,48(sp)
   102e4:	0977f7d3          	fsub.s	fa5,fa5,fs7
   102e8:	03412007          	flw	ft0,52(sp)
   102ec:	09777553          	fsub.s	fa0,fa4,fs7
   102f0:	02012707          	flw	fa4,32(sp)
   102f4:	02c12607          	flw	fa2,44(sp)
   102f8:	8201a087          	flw	ft1,-2016(gp) # 1236c <__DATA_BEGIN__+0x20>
   102fc:	090775d3          	fsub.s	fa1,fa4,fa6
   10300:	01012707          	flw	fa4,16(sp)
   10304:	08e67653          	fsub.s	fa2,fa2,fa4
   10308:	08e07753          	fsub.s	fa4,ft0,fa4
   1030c:	35032007          	flw	ft0,848(t1)
   10310:	19f173d3          	fdiv.s	ft7,ft2,ft11
   10314:	10557553          	fmul.s	fa0,fa0,ft5
   10318:	1057f7d3          	fmul.s	fa5,fa5,ft5
   1031c:	28a78153          	fmin.s	ft2,fa5,fa0
   10320:	28a797d3          	fmax.s	fa5,fa5,fa0
   10324:	34c7a507          	flw	fa0,844(a5)
   10328:	19657ed3          	fdiv.s	ft9,fa0,fs6
   1032c:	1076f6d3          	fmul.s	fa3,fa3,ft7
   10330:	1075f5d3          	fmul.s	fa1,fa1,ft7
   10334:	28b68553          	fmin.s	fa0,fa3,fa1
   10338:	28b696d3          	fmax.s	fa3,fa3,fa1
   1033c:	28a11553          	fmax.s	fa0,ft2,fa0
   10340:	28d787d3          	fmin.s	fa5,fa5,fa3
   10344:	28151553          	fmax.s	fa0,fa0,ft1
   10348:	280787d3          	fmin.s	fa5,fa5,ft0
   1034c:	11d67653          	fmul.s	fa2,fa2,ft9
   10350:	11d776d3          	fmul.s	fa3,fa4,ft9
   10354:	28d60753          	fmin.s	fa4,fa2,fa3
   10358:	28d616d3          	fmax.s	fa3,fa2,fa3
   1035c:	28e51753          	fmax.s	fa4,fa0,fa4
   10360:	28d787d3          	fmin.s	fa5,fa5,fa3
   10364:	a0e797d3          	flt.s	a5,fa5,fa4
   10368:	00078463          	beqz	a5,10370 <_ZL11path_tracerRK10KernelArgs.constprop.0+0x2a4>
   1036c:	20000753          	fmv.s	fa4,ft0
   10370:	018ba783          	lw	a5,24(s7)
   10374:	35032987          	flw	fs3,848(t1)
   10378:	8201a907          	flw	fs2,-2016(gp) # 1236c <__DATA_BEGIN__+0x20>
   1037c:	34cea407          	flw	fs0,844(t4)
   10380:	f00004d3          	fmv.w.x	fs1,zero
   10384:	01012307          	flw	ft6,16(sp)
   10388:	0ae12827          	fsw	fa4,176(sp)
   1038c:	0af12a23          	sw	a5,180(sp)
   10390:	00000c13          	li	s8,0
   10394:	00000613          	li	a2,0
   10398:	01312427          	fsw	fs3,8(sp)
   1039c:	02061713          	sll	a4,a2,0x20
   103a0:	01d75793          	srl	a5,a4,0x1d
   103a4:	0a010693          	add	a3,sp,160
   103a8:	00812787          	flw	fa5,8(sp)
   103ac:	11078713          	add	a4,a5,272
   103b0:	00d70733          	add	a4,a4,a3
   103b4:	f0073683          	ld	a3,-256(a4)
   103b8:	a0e78753          	fle.s	a4,fa5,fa4
   103bc:	0ad13423          	sd	a3,168(sp)
   103c0:	02070463          	beqz	a4,103e8 <_ZL11path_tracerRK10KernelArgs.constprop.0+0x31c>
   103c4:	44060863          	beqz	a2,10814 <_ZL11path_tracerRK10KernelArgs.constprop.0+0x748>
   103c8:	fff6061b          	addw	a2,a2,-1
   103cc:	02061713          	sll	a4,a2,0x20
   103d0:	01d75793          	srl	a5,a4,0x1d
   103d4:	11078793          	add	a5,a5,272
   103d8:	0a010713          	add	a4,sp,160
   103dc:	00e787b3          	add	a5,a5,a4
   103e0:	f007a707          	flw	fa4,-256(a5)
   103e4:	fb9ff06f          	j	1039c <_ZL11path_tracerRK10KernelArgs.constprop.0+0x2d0>
   103e8:	0b010713          	add	a4,sp,176
   103ec:	00f707b3          	add	a5,a4,a5
   103f0:	0047a703          	lw	a4,4(a5)
   103f4:	0ac12683          	lw	a3,172(sp)
   103f8:	20f78653          	fmv.s	fa2,fa5
   103fc:	0017599b          	srlw	s3,a4,0x1
   10400:	0079fa13          	and	s4,s3,7
   10404:	001a1a13          	sll	s4,s4,0x1
   10408:	0016f693          	and	a3,a3,1
   1040c:	ff077793          	and	a5,a4,-16
   10410:	0146e6b3          	or	a3,a3,s4
   10414:	00f6e6b3          	or	a3,a3,a5
   10418:	0ad12623          	sw	a3,172(sp)
   1041c:	0016f693          	and	a3,a3,1
   10420:	0079f993          	and	s3,s3,7
   10424:	0047571b          	srlw	a4,a4,0x4
   10428:	06068663          	beqz	a3,10494 <_ZL11path_tracerRK10KernelArgs.constprop.0+0x3c8>
   1042c:	2800006f          	j	106ac <_ZL11path_tracerRK10KernelArgs.constprop.0+0x5e0>
   10430:	a0c69753          	flt.s	a4,fa3,fa2
   10434:	f80708e3          	beqz	a4,103c4 <_ZL11path_tracerRK10KernelArgs.constprop.0+0x2f8>
   10438:	a0d71753          	flt.s	a4,fa4,fa3
   1043c:	1c071063          	bnez	a4,105fc <_ZL11path_tracerRK10KernelArgs.constprop.0+0x530>
   10440:	0187a703          	lw	a4,24(a5)
   10444:	0017599b          	srlw	s3,a4,0x1
   10448:	0079f693          	and	a3,s3,7
   1044c:	0016979b          	sllw	a5,a3,0x1
   10450:	ff177a13          	and	s4,a4,-15
   10454:	00fa6a33          	or	s4,s4,a5
   10458:	00fa7a13          	and	s4,s4,15
   1045c:	ff077793          	and	a5,a4,-16
   10460:	00fa6a33          	or	s4,s4,a5
   10464:	00068993          	mv	s3,a3
   10468:	0047571b          	srlw	a4,a4,0x4
   1046c:	0b412623          	sw	s4,172(sp)
   10470:	0ac12783          	lw	a5,172(sp)
   10474:	00169a13          	sll	s4,a3,0x1
   10478:	0047169b          	sllw	a3,a4,0x4
   1047c:	0017f793          	and	a5,a5,1
   10480:	0147e7b3          	or	a5,a5,s4
   10484:	00d7e7b3          	or	a5,a5,a3
   10488:	0af12623          	sw	a5,172(sp)
   1048c:	0017f793          	and	a5,a5,1
   10490:	20079e63          	bnez	a5,106ac <_ZL11path_tracerRK10KernelArgs.constprop.0+0x5e0>
   10494:	00571693          	sll	a3,a4,0x5
   10498:	00db86b3          	add	a3,s7,a3
   1049c:	0006a787          	flw	fa5,0(a3)
   104a0:	0046a587          	flw	fa1,4(a3)
   104a4:	00c6a087          	flw	ft1,12(a3)
   104a8:	0106a007          	flw	ft0,16(a3)
   104ac:	0977f7d3          	fsub.s	fa5,fa5,fs7
   104b0:	0905f5d3          	fsub.s	fa1,fa1,fa6
   104b4:	0970f0d3          	fsub.s	ft1,ft1,fs7
   104b8:	09007053          	fsub.s	ft0,ft0,fa6
   104bc:	0086a687          	flw	fa3,8(a3)
   104c0:	0146a507          	flw	fa0,20(a3)
   104c4:	1057f7d3          	fmul.s	fa5,fa5,ft5
   104c8:	1075f5d3          	fmul.s	fa1,fa1,ft7
   104cc:	1050f0d3          	fmul.s	ft1,ft1,ft5
   104d0:	10707053          	fmul.s	ft0,ft0,ft7
   104d4:	0866f6d3          	fsub.s	fa3,fa3,ft6
   104d8:	08657553          	fsub.s	fa0,fa0,ft6
   104dc:	28178753          	fmin.s	fa4,fa5,ft1
   104e0:	28058153          	fmin.s	ft2,fa1,ft0
   104e4:	281797d3          	fmax.s	fa5,fa5,ft1
   104e8:	280595d3          	fmax.s	fa1,fa1,ft0
   104ec:	11d6f6d3          	fmul.s	fa3,fa3,ft9
   104f0:	11d57553          	fmul.s	fa0,fa0,ft9
   104f4:	28b787d3          	fmin.s	fa5,fa5,fa1
   104f8:	28271753          	fmax.s	fa4,fa4,ft2
   104fc:	294787d3          	fmin.s	fa5,fa5,fs4
   10500:	28a685d3          	fmin.s	fa1,fa3,fa0
   10504:	29271753          	fmax.s	fa4,fa4,fs2
   10508:	28a696d3          	fmax.s	fa3,fa3,fa0
   1050c:	28b71753          	fmax.s	fa4,fa4,fa1
   10510:	28d787d3          	fmin.s	fa5,fa5,fa3
   10514:	a0e797d3          	flt.s	a5,fa5,fa4
   10518:	00078463          	beqz	a5,10520 <_ZL11path_tracerRK10KernelArgs.constprop.0+0x454>
   1051c:	214a0753          	fmv.s	fa4,fs4
   10520:	00170793          	add	a5,a4,1
   10524:	00579793          	sll	a5,a5,0x5
   10528:	00fb87b3          	add	a5,s7,a5
   1052c:	0007a787          	flw	fa5,0(a5)
   10530:	0047a507          	flw	fa0,4(a5)
   10534:	00c7a107          	flw	ft2,12(a5)
   10538:	0107a087          	flw	ft1,16(a5)
   1053c:	0977f7d3          	fsub.s	fa5,fa5,fs7
   10540:	09057553          	fsub.s	fa0,fa0,fa6
   10544:	09717153          	fsub.s	ft2,ft2,fs7
   10548:	0900f0d3          	fsub.s	ft1,ft1,fa6
   1054c:	0087a587          	flw	fa1,8(a5)
   10550:	0147a007          	flw	ft0,20(a5)
   10554:	1057f7d3          	fmul.s	fa5,fa5,ft5
   10558:	10757553          	fmul.s	fa0,fa0,ft7
   1055c:	10517153          	fmul.s	ft2,ft2,ft5
   10560:	1070f0d3          	fmul.s	ft1,ft1,ft7
   10564:	0865f5d3          	fsub.s	fa1,fa1,ft6
   10568:	08607053          	fsub.s	ft0,ft0,ft6
   1056c:	282786d3          	fmin.s	fa3,fa5,ft2
   10570:	281501d3          	fmin.s	ft3,fa0,ft1
   10574:	282797d3          	fmax.s	fa5,fa5,ft2
   10578:	28151553          	fmax.s	fa0,fa0,ft1
   1057c:	11d5f5d3          	fmul.s	fa1,fa1,ft9
   10580:	11d07053          	fmul.s	ft0,ft0,ft9
   10584:	28a787d3          	fmin.s	fa5,fa5,fa0
   10588:	283696d3          	fmax.s	fa3,fa3,ft3
   1058c:	294787d3          	fmin.s	fa5,fa5,fs4
   10590:	28058553          	fmin.s	fa0,fa1,ft0
   10594:	292696d3          	fmax.s	fa3,fa3,fs2
   10598:	280595d3          	fmax.s	fa1,fa1,ft0
   1059c:	28a696d3          	fmax.s	fa3,fa3,fa0
   105a0:	28b787d3          	fmin.s	fa5,fa5,fa1
   105a4:	a0d79753          	flt.s	a4,fa5,fa3
   105a8:	00070463          	beqz	a4,105b0 <_ZL11path_tracerRK10KernelArgs.constprop.0+0x4e4>
   105ac:	214a06d3          	fmv.s	fa3,fs4
   105b0:	a0c71753          	flt.s	a4,fa4,fa2
   105b4:	e6070ee3          	beqz	a4,10430 <_ZL11path_tracerRK10KernelArgs.constprop.0+0x364>
   105b8:	a0d71753          	flt.s	a4,fa4,fa3
   105bc:	08070c63          	beqz	a4,10654 <_ZL11path_tracerRK10KernelArgs.constprop.0+0x588>
   105c0:	0186aa03          	lw	s4,24(a3)
   105c4:	a0c69ad3          	flt.s	s5,fa3,fa2
   105c8:	001a599b          	srlw	s3,s4,0x1
   105cc:	0079f693          	and	a3,s3,7
   105d0:	00169b1b          	sllw	s6,a3,0x1
   105d4:	ff1a7713          	and	a4,s4,-15
   105d8:	01676733          	or	a4,a4,s6
   105dc:	00f77713          	and	a4,a4,15
   105e0:	ff0a7b13          	and	s6,s4,-16
   105e4:	01676733          	or	a4,a4,s6
   105e8:	0ae12623          	sw	a4,172(sp)
   105ec:	00068993          	mv	s3,a3
   105f0:	004a571b          	srlw	a4,s4,0x4
   105f4:	e60a8ee3          	beqz	s5,10470 <_ZL11path_tracerRK10KernelArgs.constprop.0+0x3a4>
   105f8:	0340006f          	j	1062c <_ZL11path_tracerRK10KernelArgs.constprop.0+0x560>
   105fc:	0186a703          	lw	a4,24(a3)
   10600:	0017599b          	srlw	s3,a4,0x1
   10604:	0079f693          	and	a3,s3,7
   10608:	00169a9b          	sllw	s5,a3,0x1
   1060c:	ff177a13          	and	s4,a4,-15
   10610:	015a6a33          	or	s4,s4,s5
   10614:	00fa7a13          	and	s4,s4,15
   10618:	ff077a93          	and	s5,a4,-16
   1061c:	015a6a33          	or	s4,s4,s5
   10620:	00068993          	mv	s3,a3
   10624:	0047571b          	srlw	a4,a4,0x4
   10628:	0b412623          	sw	s4,172(sp)
   1062c:	02061a93          	sll	s5,a2,0x20
   10630:	0187aa03          	lw	s4,24(a5)
   10634:	01dad793          	srl	a5,s5,0x1d
   10638:	11078793          	add	a5,a5,272
   1063c:	0a010a93          	add	s5,sp,160
   10640:	015787b3          	add	a5,a5,s5
   10644:	f0d7a027          	fsw	fa3,-256(a5)
   10648:	f147a223          	sw	s4,-252(a5)
   1064c:	0016061b          	addw	a2,a2,1
   10650:	e21ff06f          	j	10470 <_ZL11path_tracerRK10KernelArgs.constprop.0+0x3a4>
   10654:	0187a703          	lw	a4,24(a5)
   10658:	0186a783          	lw	a5,24(a3)
   1065c:	02061693          	sll	a3,a2,0x20
   10660:	0017599b          	srlw	s3,a4,0x1
   10664:	01d6da93          	srl	s5,a3,0x1d
   10668:	0079f693          	and	a3,s3,7
   1066c:	00169b1b          	sllw	s6,a3,0x1
   10670:	ff177a13          	and	s4,a4,-15
   10674:	016a6a33          	or	s4,s4,s6
   10678:	00fa7a13          	and	s4,s4,15
   1067c:	ff077b13          	and	s6,a4,-16
   10680:	110a8a93          	add	s5,s5,272
   10684:	0a010c93          	add	s9,sp,160
   10688:	019a8ab3          	add	s5,s5,s9
   1068c:	016a6a33          	or	s4,s4,s6
   10690:	00068993          	mv	s3,a3
   10694:	0047571b          	srlw	a4,a4,0x4
   10698:	0b412623          	sw	s4,172(sp)
   1069c:	f0eaa027          	fsw	fa4,-256(s5)
   106a0:	f0faa223          	sw	a5,-252(s5)
   106a4:	0016061b          	addw	a2,a2,1
   106a8:	dc9ff06f          	j	10470 <_ZL11path_tracerRK10KernelArgs.constprop.0+0x3a4>
   106ac:	13803683          	ld	a3,312(zero) # 138 <main-0xff78>
   106b0:	00e989b3          	add	s3,s3,a4
   106b4:	00399a93          	sll	s5,s3,0x3
   106b8:	00371793          	sll	a5,a4,0x3
   106bc:	013a8ab3          	add	s5,s5,s3
   106c0:	00e787b3          	add	a5,a5,a4
   106c4:	00279793          	sll	a5,a5,0x2
   106c8:	002a9a93          	sll	s5,s5,0x2
   106cc:	02468993          	add	s3,a3,36
   106d0:	00f687b3          	add	a5,a3,a5
   106d4:	013a8ab3          	add	s5,s5,s3
   106d8:	01512627          	fsw	fs5,12(sp)
   106dc:	0187a107          	flw	ft2,24(a5)
   106e0:	0207a007          	flw	ft0,32(a5)
   106e4:	0147a207          	flw	ft4,20(a5)
   106e8:	0007a087          	flw	ft1,0(a5)
   106ec:	01c7a587          	flw	fa1,28(a5)
   106f0:	08027253          	fsub.s	ft4,ft4,ft0
   106f4:	0820f0d3          	fsub.s	ft1,ft1,ft2
   106f8:	00c7a187          	flw	ft3,12(a5)
   106fc:	0107a607          	flw	fa2,16(a5)
   10700:	0087a507          	flw	fa0,8(a5)
   10704:	0821f1d3          	fsub.s	ft3,ft3,ft2
   10708:	08b67653          	fsub.s	fa2,fa2,fa1
   1070c:	08057553          	fsub.s	fa0,fa0,ft0
   10710:	101278d3          	fmul.s	fa7,ft4,ft1
   10714:	0047a707          	flw	fa4,4(a5)
   10718:	10a676d3          	fmul.s	fa3,fa2,fa0
   1071c:	08b77753          	fsub.s	fa4,fa4,fa1
   10720:	88a1f8c7          	fmsub.s	fa7,ft3,fa0,fa7
   10724:	68e276c7          	fmsub.s	fa3,ft4,fa4,fa3
   10728:	10e1f7d3          	fmul.s	fa5,ft3,fa4
   1072c:	1118f8d3          	fmul.s	fa7,fa7,fa7
   10730:	781677c7          	fmsub.s	fa5,fa2,ft1,fa5
   10734:	88d6f6c3          	fmadd.s	fa3,fa3,fa3,fa7
   10738:	68f7f7c3          	fmadd.s	fa5,fa5,fa5,fa3
   1073c:	5807f7d3          	fsqrt.s	fa5,fa5
   10740:	11e277d3          	fmul.s	fa5,ft4,ft10
   10744:	11667e53          	fmul.s	ft8,fa2,fs6
   10748:	11f1f8d3          	fmul.s	fa7,ft3,ft11
   1074c:	08b875d3          	fsub.s	fa1,fa6,fa1
   10750:	082bf153          	fsub.s	ft2,fs7,ft2
   10754:	7961f7c7          	fmsub.s	fa5,ft3,fs6,fa5
   10758:	e1f27e47          	fmsub.s	ft8,ft4,ft11,ft8
   1075c:	89e678c7          	fmsub.s	fa7,fa2,ft10,fa7
   10760:	08037053          	fsub.s	ft0,ft6,ft0
   10764:	10b0fad3          	fmul.s	fs5,ft1,fa1
   10768:	10f776d3          	fmul.s	fa3,fa4,fa5
   1076c:	102579d3          	fmul.s	fs3,fa0,ft2
   10770:	10b7f7d3          	fmul.s	fa5,fa5,fa1
   10774:	02478793          	add	a5,a5,36
   10778:	a8277ac7          	fmsub.s	fs5,fa4,ft2,fs5
   1077c:	69c0f6c3          	fmadd.s	fa3,ft1,ft8,fa3
   10780:	10077753          	fmul.s	fa4,fa4,ft0
   10784:	782e77c3          	fmadd.s	fa5,ft8,ft2,fa5
   10788:	9800f9c7          	fmsub.s	fs3,ft1,ft0,fs3
   1078c:	691576c3          	fmadd.s	fa3,fa0,fa7,fa3
   10790:	70b57747          	fmsub.s	fa4,fa0,fa1,fa4
   10794:	7808f7c3          	fmadd.s	fa5,fa7,ft0,fa5
   10798:	11f9f053          	fmul.s	ft0,fs3,ft11
   1079c:	18d476d3          	fdiv.s	fa3,fs0,fa3
   107a0:	01e775c3          	fmadd.s	fa1,fa4,ft10,ft0
   107a4:	596af5c3          	fmadd.s	fa1,fs5,fs6,fa1
   107a8:	10f6f7d3          	fmul.s	fa5,fa3,fa5
   107ac:	10b6f5d3          	fmul.s	fa1,fa3,fa1
   107b0:	a09796d3          	flt.s	a3,fa5,fs1
   107b4:	a0f419d3          	flt.s	s3,fs0,fa5
   107b8:	a0959a53          	flt.s	s4,fa1,fs1
   107bc:	04069463          	bnez	a3,10804 <_ZL11path_tracerRK10KernelArgs.constprop.0+0x738>
   107c0:	00b7f7d3          	fadd.s	fa5,fa5,fa1
   107c4:	04099063          	bnez	s3,10804 <_ZL11path_tracerRK10KernelArgs.constprop.0+0x738>
   107c8:	11367653          	fmul.s	fa2,fa2,fs3
   107cc:	020a1c63          	bnez	s4,10804 <_ZL11path_tracerRK10KernelArgs.constprop.0+0x738>
   107d0:	a0f416d3          	flt.s	a3,fs0,fa5
   107d4:	60e1f1c3          	fmadd.s	ft3,ft3,fa4,fa2
   107d8:	02069663          	bnez	a3,10804 <_ZL11path_tracerRK10KernelArgs.constprop.0+0x738>
   107dc:	19527243          	fmadd.s	ft4,ft4,fs5,ft3
   107e0:	00812787          	flw	fa5,8(sp)
   107e4:	1046f6d3          	fmul.s	fa3,fa3,ft4
   107e8:	a1b696d3          	flt.s	a3,fa3,fs11
   107ec:	a0d799d3          	flt.s	s3,fa5,fa3
   107f0:	00069a63          	bnez	a3,10804 <_ZL11path_tracerRK10KernelArgs.constprop.0+0x738>
   107f4:	00099863          	bnez	s3,10804 <_ZL11path_tracerRK10KernelArgs.constprop.0+0x738>
   107f8:	00d12427          	fsw	fa3,8(sp)
   107fc:	00070893          	mv	a7,a4
   10800:	00100c13          	li	s8,1
   10804:	0017071b          	addw	a4,a4,1
   10808:	ecfa9ae3          	bne	s5,a5,106dc <_ZL11path_tracerRK10KernelArgs.constprop.0+0x610>
   1080c:	00c12a87          	flw	fs5,12(sp)
   10810:	ba061ce3          	bnez	a2,103c8 <_ZL11path_tracerRK10KernelArgs.constprop.0+0x2fc>
   10814:	00812987          	flw	fs3,8(sp)
   10818:	1e0c06e3          	beqz	s8,11204 <_ZL11path_tracerRK10KernelArgs.constprop.0+0x1138>
   1081c:	02089793          	sll	a5,a7,0x20
   10820:	0207d793          	srl	a5,a5,0x20
   10824:	00379713          	sll	a4,a5,0x3
   10828:	00f70733          	add	a4,a4,a5
   1082c:	13803783          	ld	a5,312(zero) # 138 <main-0xff78>
   10830:	00271713          	sll	a4,a4,0x2
   10834:	00e787b3          	add	a5,a5,a4
   10838:	0207a787          	flw	fa5,32(a5)
   1083c:	0187a607          	flw	fa2,24(a5)
   10840:	0147a707          	flw	fa4,20(a5)
   10844:	0007a587          	flw	fa1,0(a5)
   10848:	01c7a007          	flw	ft0,28(a5)
   1084c:	08f776d3          	fsub.s	fa3,fa4,fa5
   10850:	08c5f5d3          	fsub.s	fa1,fa1,fa2
   10854:	00c7a507          	flw	fa0,12(a5)
   10858:	0107a087          	flw	ft1,16(a5)
   1085c:	0087a707          	flw	fa4,8(a5)
   10860:	08c57653          	fsub.s	fa2,fa0,fa2
   10864:	10d5f153          	fmul.s	ft2,fa1,fa3
   10868:	08f77753          	fsub.s	fa4,fa4,fa5
   1086c:	0800f553          	fsub.s	fa0,ft1,ft0
   10870:	0047a787          	flw	fa5,4(a5)
   10874:	0807f7d3          	fsub.s	fa5,fa5,ft0
   10878:	10a770d3          	fmul.s	ft1,fa4,fa0
   1087c:	10c77747          	fmsub.s	fa4,fa4,fa2,ft2
   10880:	08d7f6c7          	fmsub.s	fa3,fa5,fa3,ft1
   10884:	10c7f7d3          	fmul.s	fa5,fa5,fa2
   10888:	10e77653          	fmul.s	fa2,fa4,fa4
   1088c:	78a5f5c7          	fmsub.s	fa1,fa1,fa0,fa5
   10890:	60d6f7c3          	fmadd.s	fa5,fa3,fa3,fa2
   10894:	78b5f7c3          	fmadd.s	fa5,fa1,fa1,fa5
   10898:	5807f7d3          	fsqrt.s	fa5,fa5
   1089c:	18f772d3          	fdiv.s	ft5,fa4,fa5
   108a0:	81c1a607          	flw	fa2,-2020(gp) # 12368 <__DATA_BEGIN__+0x1c>
   108a4:	12402507          	flw	fa0,292(zero) # 124 <main-0xff8c>
   108a8:	12002407          	flw	fs0,288(zero) # 120 <main-0xff90>
   108ac:	10caf4d3          	fmul.s	fs1,fs5,fa2
   108b0:	12802087          	flw	ft1,296(zero) # 128 <main-0xff88>
   108b4:	f0000753          	fmv.w.x	fa4,zero
   108b8:	00a12427          	fsw	fa0,8(sp)
   108bc:	00112627          	fsw	ft1,12(sp)
   108c0:	18f6f653          	fdiv.s	fa2,fa3,fa5
   108c4:	105576d3          	fmul.s	fa3,fa0,ft5
   108c8:	18f5f053          	fdiv.s	ft0,fa1,fa5
   108cc:	68c477c3          	fmadd.s	fa5,fs0,fa2,fa3
   108d0:	7800f7c3          	fmadd.s	fa5,ft1,ft0,fa5
   108d4:	28e79253          	fmax.s	ft4,fa5,fa4
   108d8:	a04717d3          	flt.s	a5,fa4,ft4
   108dc:	18079063          	bnez	a5,10a5c <_ZL11path_tracerRK10KernelArgs.constprop.0+0x990>
   108e0:	109277d3          	fmul.s	fa5,ft4,fs1
   108e4:	01c12707          	flw	fa4,28(sp)
   108e8:	01812687          	flw	fa3,24(sp)
   108ec:	00f77753          	fadd.s	fa4,fa4,fa5
   108f0:	00e12e27          	fsw	fa4,28(sp)
   108f4:	8241a707          	flw	fa4,-2012(gp) # 12370 <__DATA_BEGIN__+0x24>
   108f8:	68e7f743          	fmadd.s	fa4,fa5,fa4,fa3
   108fc:	01412687          	flw	fa3,20(sp)
   10900:	00e12c27          	fsw	fa4,24(sp)
   10904:	81c1a707          	flw	fa4,-2020(gp) # 12368 <__DATA_BEGIN__+0x1c>
   10908:	68e7f7c3          	fmadd.s	fa5,fa5,fa4,fa3
   1090c:	00f12a27          	fsw	fa5,20(sp)
   10910:	001f0f1b          	addw	t5,t5,1
   10914:	6a5f0463          	beq	t5,t0,10fbc <_ZL11path_tracerRK10KernelArgs.constprop.0+0xef0>
   10918:	01012787          	flw	fa5,16(sp)
   1091c:	b9e9fbc3          	fmadd.s	fs7,fs3,ft10,fs7
   10920:	81f9f843          	fmadd.s	fa6,fs3,ft11,fa6
   10924:	7969f7c3          	fmadd.s	fa5,fs3,fs6,fa5
   10928:	34cea587          	flw	fa1,844(t4)
   1092c:	001969b7          	lui	s3,0x196
   10930:	3c6ef637          	lui	a2,0x3c6ef
   10934:	008006b7          	lui	a3,0x800
   10938:	00f12827          	fsw	fa5,16(sp)
   1093c:	60d9899b          	addw	s3,s3,1549 # 19660d <__global_pointer$+0x183ac1>
   10940:	35f6061b          	addw	a2,a2,863 # 3c6ef35f <__global_pointer$+0x3c6dc813>
   10944:	fff68693          	add	a3,a3,-1 # 7fffff <__global_pointer$+0x7ed4b3>
   10948:	3f800a37          	lui	s4,0x3f800
   1094c:	033507bb          	mulw	a5,a0,s3
   10950:	00d57533          	and	a0,a0,a3
   10954:	01456533          	or	a0,a0,s4
   10958:	f00507d3          	fmv.w.x	fa5,a0
   1095c:	08b7f7d3          	fsub.s	fa5,fa5,fa1
   10960:	00c787bb          	addw	a5,a5,a2
   10964:	00f6f733          	and	a4,a3,a5
   10968:	01476733          	or	a4,a4,s4
   1096c:	f0070753          	fmv.w.x	fa4,a4
   10970:	033787bb          	mulw	a5,a5,s3
   10974:	d187f7c3          	fmadd.s	fa5,fa5,fs8,fs10
   10978:	08b77753          	fsub.s	fa4,fa4,fa1
   1097c:	d1877743          	fmadd.s	fa4,fa4,fs8,fs10
   10980:	00c7853b          	addw	a0,a5,a2
   10984:	10e776d3          	fmul.s	fa3,fa4,fa4
   10988:	68f7f6c3          	fmadd.s	fa3,fa5,fa5,fa3
   1098c:	a0d597d3          	flt.s	a5,fa1,fa3
   10990:	fa079ee3          	bnez	a5,1094c <_ZL11path_tracerRK10KernelArgs.constprop.0+0x880>
   10994:	08d5f6d3          	fsub.s	fa3,fa1,fa3
   10998:	5806f6d3          	fsqrt.s	fa3,fa3
   1099c:	1052f553          	fmul.s	fa0,ft5,ft5
   109a0:	50c67543          	fmadd.s	fa0,fa2,fa2,fa0
   109a4:	50007543          	fmadd.s	fa0,ft0,ft0,fa0
   109a8:	58057553          	fsqrt.s	fa0,fa0
   109ac:	18a67153          	fdiv.s	ft2,fa2,fa0
   109b0:	8181a087          	flw	ft1,-2024(gp) # 12364 <__DATA_BEGIN__+0x18>
   109b4:	20212253          	fabs.s	ft4,ft2
   109b8:	18a2f1d3          	fdiv.s	ft3,ft5,fa0
   109bc:	a01217d3          	flt.s	a5,ft4,ft1
   109c0:	18a07553          	fdiv.s	fa0,ft0,fa0
   109c4:	000786e3          	beqz	a5,111d0 <_ZL11path_tracerRK10KernelArgs.constprop.0+0x1104>
   109c8:	10a17553          	fmul.s	fa0,ft2,fa0
   109cc:	103171d3          	fmul.s	ft3,ft2,ft3
   109d0:	5821714b          	fnmsub.s	ft2,ft2,ft2,fa1
   109d4:	10a575d3          	fmul.s	fa1,fa0,fa0
   109d8:	5831f5c3          	fmadd.s	fa1,ft3,ft3,fa1
   109dc:	582175c3          	fmadd.s	fa1,ft2,ft2,fa1
   109e0:	5805f5d3          	fsqrt.s	fa1,fa1
   109e4:	203191d3          	fneg.s	ft3,ft3
   109e8:	20a51553          	fneg.s	fa0,fa0
   109ec:	18b17153          	fdiv.s	ft2,ft2,fa1
   109f0:	18b1f1d3          	fdiv.s	ft3,ft3,fa1
   109f4:	18b570d3          	fdiv.s	ft1,fa0,fa1
   109f8:	1056f3d3          	fmul.s	ft7,fa3,ft5
   109fc:	101675d3          	fmul.s	fa1,fa2,ft1
   10a00:	10c6f8d3          	fmul.s	fa7,fa3,fa2
   10a04:	10307553          	fmul.s	fa0,ft0,ft3
   10a08:	10517253          	fmul.s	ft4,ft2,ft5
   10a0c:	3837f3c3          	fmadd.s	ft7,fa5,ft3,ft7
   10a10:	580175c7          	fmsub.s	fa1,ft2,ft0,fa1
   10a14:	1006f6d3          	fmul.s	fa3,fa3,ft0
   10a18:	88f17143          	fmadd.s	ft2,ft2,fa5,fa7
   10a1c:	5012f547          	fmsub.s	fa0,ft5,ft1,fa0
   10a20:	20367247          	fmsub.s	ft4,fa2,ft3,ft4
   10a24:	38e5f5c3          	fmadd.s	fa1,fa1,fa4,ft7
   10a28:	6817fb43          	fmadd.s	fs6,fa5,ft1,fa3
   10a2c:	10e57543          	fmadd.s	fa0,fa0,fa4,ft2
   10a30:	10b5f6d3          	fmul.s	fa3,fa1,fa1
   10a34:	b0e27b43          	fmadd.s	fs6,ft4,fa4,fs6
   10a38:	68a577c3          	fmadd.s	fa5,fa0,fa0,fa3
   10a3c:	796b77c3          	fmadd.s	fa5,fs6,fs6,fa5
   10a40:	5807f7d3          	fsqrt.s	fa5,fa5
   10a44:	81c1a707          	flw	fa4,-2020(gp) # 12368 <__DATA_BEGIN__+0x1c>
   10a48:	18f57f53          	fdiv.s	ft10,fa0,fa5
   10a4c:	10eafad3          	fmul.s	fs5,fs5,fa4
   10a50:	18f5ffd3          	fdiv.s	ft11,fa1,fa5
   10a54:	18fb7b53          	fdiv.s	fs6,fs6,fa5
   10a58:	871ff06f          	j	102c8 <_ZL11path_tracerRK10KernelArgs.constprop.0+0x1fc>
   10a5c:	34cea087          	flw	ft1,844(t4)
   10a60:	b9e9f7c3          	fmadd.s	fa5,fs3,ft10,fs7
   10a64:	02412587          	flw	fa1,36(sp)
   10a68:	1880fed3          	fdiv.s	ft9,ft1,fs0
   10a6c:	81f9f743          	fmadd.s	fa4,fs3,ft11,fa6
   10a70:	20a50353          	fmv.s	ft6,fa0
   10a74:	08f5f1d3          	fsub.s	ft3,fa1,fa5
   10a78:	02812587          	flw	fa1,40(sp)
   10a7c:	01012687          	flw	fa3,16(sp)
   10a80:	02012107          	flw	ft2,32(sp)
   10a84:	08e5f553          	fsub.s	fa0,fa1,fa4
   10a88:	03012587          	flw	fa1,48(sp)
   10a8c:	6969f6c3          	fmadd.s	fa3,fs3,fs6,fa3
   10a90:	08e178d3          	fsub.s	fa7,ft2,fa4
   10a94:	08f5f5d3          	fsub.s	fa1,fa1,fa5
   10a98:	02c12107          	flw	ft2,44(sp)
   10a9c:	35032907          	flw	fs2,848(t1)
   10aa0:	08d173d3          	fsub.s	ft7,ft2,fa3
   10aa4:	03412107          	flw	ft2,52(sp)
   10aa8:	08d17153          	fsub.s	ft2,ft2,fa3
   10aac:	11d5f5d3          	fmul.s	fa1,fa1,ft9
   10ab0:	11d1f1d3          	fmul.s	ft3,ft3,ft9
   10ab4:	1860fe53          	fdiv.s	ft8,ft1,ft6
   10ab8:	28b18353          	fmin.s	ft6,ft3,fa1
   10abc:	28b191d3          	fmax.s	ft3,ft3,fa1
   10ac0:	00c12587          	flw	fa1,12(sp)
   10ac4:	18b0f0d3          	fdiv.s	ft1,ft1,fa1
   10ac8:	11c57553          	fmul.s	fa0,fa0,ft8
   10acc:	11c8f8d3          	fmul.s	fa7,fa7,ft8
   10ad0:	291505d3          	fmin.s	fa1,fa0,fa7
   10ad4:	29151553          	fmax.s	fa0,fa0,fa7
   10ad8:	28b315d3          	fmax.s	fa1,ft6,fa1
   10adc:	28a18553          	fmin.s	fa0,ft3,fa0
   10ae0:	8201a187          	flw	ft3,-2016(gp) # 1236c <__DATA_BEGIN__+0x20>
   10ae4:	29250553          	fmin.s	fa0,fa0,fs2
   10ae8:	283595d3          	fmax.s	fa1,fa1,ft3
   10aec:	1013f3d3          	fmul.s	ft7,ft7,ft1
   10af0:	10117153          	fmul.s	ft2,ft2,ft1
   10af4:	282381d3          	fmin.s	ft3,ft7,ft2
   10af8:	28239153          	fmax.s	ft2,ft7,ft2
   10afc:	283595d3          	fmax.s	fa1,fa1,ft3
   10b00:	28250553          	fmin.s	fa0,fa0,ft2
   10b04:	a0b517d3          	flt.s	a5,fa0,fa1
   10b08:	00078463          	beqz	a5,10b10 <_ZL11path_tracerRK10KernelArgs.constprop.0+0xa44>
   10b0c:	212905d3          	fmv.s	fa1,fs2
   10b10:	018ba783          	lw	a5,24(s7)
   10b14:	05512227          	fsw	fs5,68(sp)
   10b18:	8201a907          	flw	fs2,-2016(gp) # 1236c <__DATA_BEGIN__+0x20>
   10b1c:	00c12a87          	flw	fs5,12(sp)
   10b20:	216b03d3          	fmv.s	ft7,fs6
   10b24:	20c60553          	fmv.s	fa0,fa2
   10b28:	20948153          	fmv.s	ft2,fs1
   10b2c:	21398353          	fmv.s	ft6,fs3
   10b30:	0ab12827          	fsw	fa1,176(sp)
   10b34:	00812987          	flw	fs3,8(sp)
   10b38:	0af12a23          	sw	a5,180(sp)
   10b3c:	00000613          	li	a2,0
   10b40:	03712e27          	fsw	fs7,60(sp)
   10b44:	05012027          	fsw	fa6,64(sp)
   10b48:	02812c27          	fsw	fs0,56(sp)
   10b4c:	00112427          	fsw	ft1,8(sp)
   10b50:	02061713          	sll	a4,a2,0x20
   10b54:	01d75793          	srl	a5,a4,0x1d
   10b58:	11078713          	add	a4,a5,272
   10b5c:	0a010693          	add	a3,sp,160
   10b60:	00d70733          	add	a4,a4,a3
   10b64:	0b010693          	add	a3,sp,176
   10b68:	00f687b3          	add	a5,a3,a5
   10b6c:	0047a683          	lw	a3,4(a5)
   10b70:	000127b7          	lui	a5,0x12
   10b74:	3507a607          	flw	fa2,848(a5) # 12350 <__DATA_BEGIN__+0x4>
   10b78:	f0073703          	ld	a4,-256(a4)
   10b7c:	0016da1b          	srlw	s4,a3,0x1
   10b80:	a0b607d3          	fle.s	a5,fa2,fa1
   10b84:	0ae13423          	sd	a4,168(sp)
   10b88:	007a7a13          	and	s4,s4,7
   10b8c:	0046d71b          	srlw	a4,a3,0x4
   10b90:	0046d69b          	srlw	a3,a3,0x4
   10b94:	02078463          	beqz	a5,10bbc <_ZL11path_tracerRK10KernelArgs.constprop.0+0xaf0>
   10b98:	58060663          	beqz	a2,11124 <_ZL11path_tracerRK10KernelArgs.constprop.0+0x1058>
   10b9c:	fff6061b          	addw	a2,a2,-1
   10ba0:	02061713          	sll	a4,a2,0x20
   10ba4:	01d75793          	srl	a5,a4,0x1d
   10ba8:	11078793          	add	a5,a5,272
   10bac:	0a010713          	add	a4,sp,160
   10bb0:	00e787b3          	add	a5,a5,a4
   10bb4:	f007a587          	flw	fa1,-256(a5)
   10bb8:	f99ff06f          	j	10b50 <_ZL11path_tracerRK10KernelArgs.constprop.0+0xa84>
   10bbc:	0ac12783          	lw	a5,172(sp)
   10bc0:	001a1993          	sll	s3,s4,0x1
   10bc4:	0047171b          	sllw	a4,a4,0x4
   10bc8:	0017f793          	and	a5,a5,1
   10bcc:	0137e7b3          	or	a5,a5,s3
   10bd0:	00e7e7b3          	or	a5,a5,a4
   10bd4:	0af12623          	sw	a5,172(sp)
   10bd8:	0017f793          	and	a5,a5,1
   10bdc:	22079c63          	bnez	a5,10e14 <_ZL11path_tracerRK10KernelArgs.constprop.0+0xd48>
   10be0:	00812b07          	flw	fs6,8(sp)
   10be4:	0700006f          	j	10c54 <_ZL11path_tracerRK10KernelArgs.constprop.0+0xb88>
   10be8:	a19596d3          	flt.s	a3,fa1,fs9
   10bec:	58069263          	bnez	a3,11170 <_ZL11path_tracerRK10KernelArgs.constprop.0+0x10a4>
   10bf0:	a19096d3          	flt.s	a3,ft1,fs9
   10bf4:	fa0682e3          	beqz	a3,10b98 <_ZL11path_tracerRK10KernelArgs.constprop.0+0xacc>
   10bf8:	a01596d3          	flt.s	a3,fa1,ft1
   10bfc:	1c069063          	bnez	a3,10dbc <_ZL11path_tracerRK10KernelArgs.constprop.0+0xcf0>
   10c00:	01872683          	lw	a3,24(a4)
   10c04:	0016da1b          	srlw	s4,a3,0x1
   10c08:	007a7993          	and	s3,s4,7
   10c0c:	0019971b          	sllw	a4,s3,0x1
   10c10:	ff16f793          	and	a5,a3,-15
   10c14:	00e7e7b3          	or	a5,a5,a4
   10c18:	00f7f793          	and	a5,a5,15
   10c1c:	ff06f713          	and	a4,a3,-16
   10c20:	00e7e7b3          	or	a5,a5,a4
   10c24:	00098a13          	mv	s4,s3
   10c28:	0046d69b          	srlw	a3,a3,0x4
   10c2c:	0af12623          	sw	a5,172(sp)
   10c30:	0ac12783          	lw	a5,172(sp)
   10c34:	00199993          	sll	s3,s3,0x1
   10c38:	0046971b          	sllw	a4,a3,0x4
   10c3c:	0017f793          	and	a5,a5,1
   10c40:	0137e7b3          	or	a5,a5,s3
   10c44:	00e7e7b3          	or	a5,a5,a4
   10c48:	0af12623          	sw	a5,172(sp)
   10c4c:	0017f793          	and	a5,a5,1
   10c50:	1c079263          	bnez	a5,10e14 <_ZL11path_tracerRK10KernelArgs.constprop.0+0xd48>
   10c54:	00569793          	sll	a5,a3,0x5
   10c58:	00fb87b3          	add	a5,s7,a5
   10c5c:	0007a187          	flw	ft3,0(a5)
   10c60:	0047a887          	flw	fa7,4(a5)
   10c64:	00c7a407          	flw	fs0,12(a5)
   10c68:	0107a607          	flw	fa2,16(a5)
   10c6c:	08f1f1d3          	fsub.s	ft3,ft3,fa5
   10c70:	08e8f8d3          	fsub.s	fa7,fa7,fa4
   10c74:	08f47453          	fsub.s	fs0,fs0,fa5
   10c78:	08e67653          	fsub.s	fa2,fa2,fa4
   10c7c:	0087a087          	flw	ft1,8(a5)
   10c80:	0147a807          	flw	fa6,20(a5)
   10c84:	11d1f1d3          	fmul.s	ft3,ft3,ft9
   10c88:	11c8f8d3          	fmul.s	fa7,fa7,ft8
   10c8c:	11d47453          	fmul.s	fs0,fs0,ft9
   10c90:	11c67653          	fmul.s	fa2,fa2,ft8
   10c94:	08d0f0d3          	fsub.s	ft1,ft1,fa3
   10c98:	08d87853          	fsub.s	fa6,fa6,fa3
   10c9c:	288184d3          	fmin.s	fs1,ft3,fs0
   10ca0:	28c885d3          	fmin.s	fa1,fa7,fa2
   10ca4:	288191d3          	fmax.s	ft3,ft3,fs0
   10ca8:	28c89653          	fmax.s	fa2,fa7,fa2
   10cac:	1160f0d3          	fmul.s	ft1,ft1,fs6
   10cb0:	11687853          	fmul.s	fa6,fa6,fs6
   10cb4:	28c18653          	fmin.s	fa2,ft3,fa2
   10cb8:	28b495d3          	fmax.s	fa1,fs1,fa1
   10cbc:	29460653          	fmin.s	fa2,fa2,fs4
   10cc0:	290081d3          	fmin.s	ft3,ft1,fa6
   10cc4:	292595d3          	fmax.s	fa1,fa1,fs2
   10cc8:	290090d3          	fmax.s	ft1,ft1,fa6
   10ccc:	283595d3          	fmax.s	fa1,fa1,ft3
   10cd0:	28160653          	fmin.s	fa2,fa2,ft1
   10cd4:	a0b61753          	flt.s	a4,fa2,fa1
   10cd8:	00070463          	beqz	a4,10ce0 <_ZL11path_tracerRK10KernelArgs.constprop.0+0xc14>
   10cdc:	214a05d3          	fmv.s	fa1,fs4
   10ce0:	00168713          	add	a4,a3,1
   10ce4:	00571713          	sll	a4,a4,0x5
   10ce8:	00eb8733          	add	a4,s7,a4
   10cec:	00072607          	flw	fa2,0(a4)
   10cf0:	00472407          	flw	fs0,4(a4)
   10cf4:	00c72487          	flw	fs1,12(a4)
   10cf8:	01072807          	flw	fa6,16(a4)
   10cfc:	08f67653          	fsub.s	fa2,fa2,fa5
   10d00:	08e47453          	fsub.s	fs0,fs0,fa4
   10d04:	08f4f4d3          	fsub.s	fs1,fs1,fa5
   10d08:	08e87853          	fsub.s	fa6,fa6,fa4
   10d0c:	00872887          	flw	fa7,8(a4)
   10d10:	01472187          	flw	ft3,20(a4)
   10d14:	11d67653          	fmul.s	fa2,fa2,ft9
   10d18:	11c47453          	fmul.s	fs0,fs0,ft8
   10d1c:	11d4f4d3          	fmul.s	fs1,fs1,ft9
   10d20:	11c87853          	fmul.s	fa6,fa6,ft8
   10d24:	08d8f8d3          	fsub.s	fa7,fa7,fa3
   10d28:	08d1f1d3          	fsub.s	ft3,ft3,fa3
   10d2c:	28960bd3          	fmin.s	fs7,fa2,fs1
   10d30:	290400d3          	fmin.s	ft1,fs0,fa6
   10d34:	28961653          	fmax.s	fa2,fa2,fs1
   10d38:	29041853          	fmax.s	fa6,fs0,fa6
   10d3c:	1168f8d3          	fmul.s	fa7,fa7,fs6
   10d40:	1161f1d3          	fmul.s	ft3,ft3,fs6
   10d44:	29060653          	fmin.s	fa2,fa2,fa6
   10d48:	281b90d3          	fmax.s	ft1,fs7,ft1
   10d4c:	29960653          	fmin.s	fa2,fa2,fs9
   10d50:	28388853          	fmin.s	fa6,fa7,ft3
   10d54:	292090d3          	fmax.s	ft1,ft1,fs2
   10d58:	283891d3          	fmax.s	ft3,fa7,ft3
   10d5c:	290090d3          	fmax.s	ft1,ft1,fa6
   10d60:	28360653          	fmin.s	fa2,fa2,ft3
   10d64:	a01616d3          	flt.s	a3,fa2,ft1
   10d68:	e80680e3          	beqz	a3,10be8 <_ZL11path_tracerRK10KernelArgs.constprop.0+0xb1c>
   10d6c:	a19596d3          	flt.s	a3,fa1,fs9
   10d70:	e20684e3          	beqz	a3,10b98 <_ZL11path_tracerRK10KernelArgs.constprop.0+0xacc>
   10d74:	219c80d3          	fmv.s	ft1,fs9
   10d78:	0187a683          	lw	a3,24(a5)
   10d7c:	000127b7          	lui	a5,0x12
   10d80:	3507a607          	flw	fa2,848(a5) # 12350 <__DATA_BEGIN__+0x4>
   10d84:	0016da1b          	srlw	s4,a3,0x1
   10d88:	007a7993          	and	s3,s4,7
   10d8c:	00199b1b          	sllw	s6,s3,0x1
   10d90:	ff16f793          	and	a5,a3,-15
   10d94:	0167e7b3          	or	a5,a5,s6
   10d98:	00f7f793          	and	a5,a5,15
   10d9c:	ff06fb13          	and	s6,a3,-16
   10da0:	a0c09ad3          	flt.s	s5,ft1,fa2
   10da4:	0167e7b3          	or	a5,a5,s6
   10da8:	0af12623          	sw	a5,172(sp)
   10dac:	00098a13          	mv	s4,s3
   10db0:	0046d69b          	srlw	a3,a3,0x4
   10db4:	e60a8ee3          	beqz	s5,10c30 <_ZL11path_tracerRK10KernelArgs.constprop.0+0xb64>
   10db8:	0340006f          	j	10dec <_ZL11path_tracerRK10KernelArgs.constprop.0+0xd20>
   10dbc:	0187a683          	lw	a3,24(a5)
   10dc0:	0016da1b          	srlw	s4,a3,0x1
   10dc4:	007a7993          	and	s3,s4,7
   10dc8:	00199a9b          	sllw	s5,s3,0x1
   10dcc:	ff16f793          	and	a5,a3,-15
   10dd0:	0157e7b3          	or	a5,a5,s5
   10dd4:	00f7f793          	and	a5,a5,15
   10dd8:	ff06fa93          	and	s5,a3,-16
   10ddc:	0157e7b3          	or	a5,a5,s5
   10de0:	00098a13          	mv	s4,s3
   10de4:	0046d69b          	srlw	a3,a3,0x4
   10de8:	0af12623          	sw	a5,172(sp)
   10dec:	02061a93          	sll	s5,a2,0x20
   10df0:	01dad793          	srl	a5,s5,0x1d
   10df4:	01872703          	lw	a4,24(a4)
   10df8:	11078793          	add	a5,a5,272
   10dfc:	0a010a93          	add	s5,sp,160
   10e00:	015787b3          	add	a5,a5,s5
   10e04:	f017a027          	fsw	ft1,-256(a5)
   10e08:	f0e7a223          	sw	a4,-252(a5)
   10e0c:	0016061b          	addw	a2,a2,1
   10e10:	e21ff06f          	j	10c30 <_ZL11path_tracerRK10KernelArgs.constprop.0+0xb64>
   10e14:	13803783          	ld	a5,312(zero) # 138 <main-0xff78>
   10e18:	00da0a33          	add	s4,s4,a3
   10e1c:	00369993          	sll	s3,a3,0x3
   10e20:	003a1713          	sll	a4,s4,0x3
   10e24:	00d986b3          	add	a3,s3,a3
   10e28:	01470733          	add	a4,a4,s4
   10e2c:	34ceab07          	flw	fs6,844(t4)
   10e30:	f0000bd3          	fmv.w.x	fs7,zero
   10e34:	03812407          	flw	fs0,56(sp)
   10e38:	02478993          	add	s3,a5,36
   10e3c:	00269693          	sll	a3,a3,0x2
   10e40:	00271713          	sll	a4,a4,0x2
   10e44:	00d787b3          	add	a5,a5,a3
   10e48:	01370733          	add	a4,a4,s3
   10e4c:	06412027          	fsw	ft4,96(sp)
   10e50:	01e12627          	fsw	ft10,12(sp)
   10e54:	05f12427          	fsw	ft11,72(sp)
   10e58:	04712627          	fsw	ft7,76(sp)
   10e5c:	04612827          	fsw	ft6,80(sp)
   10e60:	04a12a27          	fsw	fa0,84(sp)
   10e64:	04512c27          	fsw	ft5,88(sp)
   10e68:	04012e27          	fsw	ft0,92(sp)
   10e6c:	0187a187          	flw	ft3,24(a5)
   10e70:	0207a087          	flw	ft1,32(a5)
   10e74:	0007a607          	flw	fa2,0(a5)
   10e78:	0147a287          	flw	ft5,20(a5)
   10e7c:	01c7a007          	flw	ft0,28(a5)
   10e80:	08367f53          	fsub.s	ft10,fa2,ft3
   10e84:	0812f2d3          	fsub.s	ft5,ft5,ft1
   10e88:	0107a607          	flw	fa2,16(a5)
   10e8c:	0087a587          	flw	fa1,8(a5)
   10e90:	00c7a207          	flw	ft4,12(a5)
   10e94:	08067853          	fsub.s	fa6,fa2,ft0
   10e98:	0815f8d3          	fsub.s	fa7,fa1,ft1
   10e9c:	08327253          	fsub.s	ft4,ft4,ft3
   10ea0:	11e2f353          	fmul.s	ft6,ft5,ft10
   10ea4:	0047a607          	flw	fa2,4(a5)
   10ea8:	11187553          	fmul.s	fa0,fa6,fa7
   10eac:	08067653          	fsub.s	fa2,fa2,ft0
   10eb0:	31127347          	fmsub.s	ft6,ft4,fa7,ft6
   10eb4:	50c2f547          	fmsub.s	fa0,ft5,fa2,fa0
   10eb8:	10c275d3          	fmul.s	fa1,ft4,fa2
   10ebc:	10637353          	fmul.s	ft6,ft6,ft6
   10ec0:	59e875c7          	fmsub.s	fa1,fa6,ft10,fa1
   10ec4:	30a57543          	fmadd.s	fa0,fa0,fa0,ft6
   10ec8:	50b5f5c3          	fmadd.s	fa1,fa1,fa1,fa0
   10ecc:	5805f5d3          	fsqrt.s	fa1,fa1
   10ed0:	105473d3          	fmul.s	ft7,fs0,ft5
   10ed4:	110af353          	fmul.s	ft6,fs5,fa6
   10ed8:	1049f5d3          	fmul.s	fa1,fs3,ft4
   10edc:	08077053          	fsub.s	ft0,fa4,ft0
   10ee0:	0837f1d3          	fsub.s	ft3,fa5,ft3
   10ee4:	384af3c7          	fmsub.s	ft7,fs5,ft4,ft7
   10ee8:	3059f347          	fmsub.s	ft6,fs3,ft5,ft6
   10eec:	590475c7          	fmsub.s	fa1,fs0,fa6,fa1
   10ef0:	0816f0d3          	fsub.s	ft1,fa3,ft1
   10ef4:	100f74d3          	fmul.s	fs1,ft10,ft0
   10ef8:	10767553          	fmul.s	fa0,fa2,ft7
   10efc:	1038ffd3          	fmul.s	ft11,fa7,ft3
   10f00:	1003f3d3          	fmul.s	ft7,ft7,ft0
   10f04:	02478793          	add	a5,a5,36
   10f08:	483674c7          	fmsub.s	fs1,fa2,ft3,fs1
   10f0c:	506f7543          	fmadd.s	fa0,ft10,ft6,fa0
   10f10:	10167653          	fmul.s	fa2,fa2,ft1
   10f14:	38337343          	fmadd.s	ft6,ft6,ft3,ft7
   10f18:	f81f7fc7          	fmsub.s	ft11,ft10,ft1,ft11
   10f1c:	50b8f543          	fmadd.s	fa0,fa7,fa1,fa0
   10f20:	6008f647          	fmsub.s	fa2,fa7,ft0,fa2
   10f24:	3015f5c3          	fmadd.s	fa1,fa1,ft1,ft6
   10f28:	11f9f0d3          	fmul.s	ft1,fs3,ft11
   10f2c:	18ab7553          	fdiv.s	fa0,fs6,fa0
   10f30:	08c47043          	fmadd.s	ft0,fs0,fa2,ft1
   10f34:	009af043          	fmadd.s	ft0,fs5,fs1,ft0
   10f38:	10b575d3          	fmul.s	fa1,fa0,fa1
   10f3c:	10057053          	fmul.s	ft0,fa0,ft0
   10f40:	a17596d3          	flt.s	a3,fa1,fs7
   10f44:	a0bb19d3          	flt.s	s3,fs6,fa1
   10f48:	a1701a53          	flt.s	s4,ft0,fs7
   10f4c:	1a069863          	bnez	a3,110fc <_ZL11path_tracerRK10KernelArgs.constprop.0+0x1030>
   10f50:	0005f5d3          	fadd.s	fa1,fa1,ft0
   10f54:	1a099463          	bnez	s3,110fc <_ZL11path_tracerRK10KernelArgs.constprop.0+0x1030>
   10f58:	11f87853          	fmul.s	fa6,fa6,ft11
   10f5c:	1a0a1063          	bnez	s4,110fc <_ZL11path_tracerRK10KernelArgs.constprop.0+0x1030>
   10f60:	a0bb16d3          	flt.s	a3,fs6,fa1
   10f64:	80c27243          	fmadd.s	ft4,ft4,fa2,fa6
   10f68:	18069a63          	bnez	a3,110fc <_ZL11path_tracerRK10KernelArgs.constprop.0+0x1030>
   10f6c:	2092f2c3          	fmadd.s	ft5,ft5,fs1,ft4
   10f70:	8201a607          	flw	fa2,-2016(gp) # 1236c <__DATA_BEGIN__+0x20>
   10f74:	10557553          	fmul.s	fa0,fa0,ft5
   10f78:	a0c516d3          	flt.s	a3,fa0,fa2
   10f7c:	18069063          	bnez	a3,110fc <_ZL11path_tracerRK10KernelArgs.constprop.0+0x1030>
   10f80:	35032607          	flw	fa2,848(t1)
   10f84:	a0a616d3          	flt.s	a3,fa2,fa0
   10f88:	16069a63          	bnez	a3,110fc <_ZL11path_tracerRK10KernelArgs.constprop.0+0x1030>
   10f8c:	001f0f1b          	addw	t5,t5,1
   10f90:	03c12b87          	flw	fs7,60(sp)
   10f94:	04012807          	flw	fa6,64(sp)
   10f98:	04412a87          	flw	fs5,68(sp)
   10f9c:	00c12f07          	flw	ft10,12(sp)
   10fa0:	04812f87          	flw	ft11,72(sp)
   10fa4:	04c12b07          	flw	fs6,76(sp)
   10fa8:	05012987          	flw	fs3,80(sp)
   10fac:	05412607          	flw	fa2,84(sp)
   10fb0:	05812287          	flw	ft5,88(sp)
   10fb4:	05c12007          	flw	ft0,92(sp)
   10fb8:	965f10e3          	bne	t5,t0,10918 <_ZL11path_tracerRK10KernelArgs.constprop.0+0x84c>
   10fbc:	06412587          	flw	fa1,100(sp)
   10fc0:	06812187          	flw	ft3,104(sp)
   10fc4:	06c12687          	flw	fa3,108(sp)
   10fc8:	07012707          	flw	fa4,112(sp)
   10fcc:	07412007          	flw	ft0,116(sp)
   10fd0:	07812787          	flw	fa5,120(sp)
   10fd4:	07c12287          	flw	ft5,124(sp)
   10fd8:	08012207          	flw	ft4,128(sp)
   10fdc:	08412607          	flw	fa2,132(sp)
   10fe0:	08812e87          	flw	ft9,136(sp)
   10fe4:	08c12887          	flw	fa7,140(sp)
   10fe8:	09012987          	flw	fs3,144(sp)
   10fec:	09412087          	flw	ft1,148(sp)
   10ff0:	09812f07          	flw	ft10,152(sp)
   10ff4:	0014041b          	addw	s0,s0,1
   10ff8:	a1241663          	bne	s0,s2,10204 <_ZL11path_tracerRK10KernelArgs.constprop.0+0x138>
   10ffc:	34cea607          	flw	fa2,844(t4)
   11000:	d01477d3          	fcvt.s.wu	fa5,s0
   11004:	01412707          	flw	fa4,20(sp)
   11008:	01c12087          	flw	ft1,28(sp)
   1100c:	18f677d3          	fdiv.s	fa5,fa2,fa5
   11010:	f0000053          	fmv.w.x	ft0,zero
   11014:	82c1a507          	flw	fa0,-2004(gp) # 12378 <__DATA_BEGIN__+0x2c>
   11018:	8081a587          	flw	fa1,-2040(gp) # 12354 <__DATA_BEGIN__+0x8>
   1101c:	10f776d3          	fmul.s	fa3,fa4,fa5
   11020:	01812707          	flw	fa4,24(sp)
   11024:	10f77753          	fmul.s	fa4,fa4,fa5
   11028:	10f0f7d3          	fmul.s	fa5,ft1,fa5
   1102c:	280696d3          	fmax.s	fa3,fa3,ft0
   11030:	28071753          	fmax.s	fa4,fa4,ft0
   11034:	280797d3          	fmax.s	fa5,fa5,ft0
   11038:	28c686d3          	fmin.s	fa3,fa3,fa2
   1103c:	28c70753          	fmin.s	fa4,fa4,fa2
   11040:	28c787d3          	fmin.s	fa5,fa5,fa2
   11044:	58a6f6c3          	fmadd.s	fa3,fa3,fa0,fa1
   11048:	58a77743          	fmadd.s	fa4,fa4,fa0,fa1
   1104c:	58a7f7c3          	fmadd.s	fa5,fa5,fa0,fa1
   11050:	c0169753          	fcvt.wu.s	a4,fa3,rtz
   11054:	c01717d3          	fcvt.wu.s	a5,fa4,rtz
   11058:	c01796d3          	fcvt.wu.s	a3,fa5,rtz
   1105c:	0107171b          	sllw	a4,a4,0x10
   11060:	0087979b          	sllw	a5,a5,0x8
   11064:	00e7e7b3          	or	a5,a5,a4
   11068:	0007879b          	sext.w	a5,a5
   1106c:	00d7e7b3          	or	a5,a5,a3
   11070:	ff000737          	lui	a4,0xff000
   11074:	00e7e7b3          	or	a5,a5,a4
   11078:	0007879b          	sext.w	a5,a5
   1107c:	02059693          	sll	a3,a1,0x20
   11080:	01e6d713          	srl	a4,a3,0x1e
   11084:	00e80733          	add	a4,a6,a4
   11088:	00f72023          	sw	a5,0(a4) # ffffffffff000000 <__global_pointer$+0xfffffffffefed4b4>
   1108c:	0000058b          	fchthrd	a1
   11090:	10802783          	lw	a5,264(zero) # 108 <main-0xffa8>
   11094:	0005859b          	sext.w	a1,a1
   11098:	8cf5e063          	bltu	a1,a5,10158 <_ZL11path_tracerRK10KernelArgs.constprop.0+0x8c>
   1109c:	22813403          	ld	s0,552(sp)
   110a0:	22013483          	ld	s1,544(sp)
   110a4:	21813903          	ld	s2,536(sp)
   110a8:	21013983          	ld	s3,528(sp)
   110ac:	20813a03          	ld	s4,520(sp)
   110b0:	20013a83          	ld	s5,512(sp)
   110b4:	1f813b03          	ld	s6,504(sp)
   110b8:	1f013b83          	ld	s7,496(sp)
   110bc:	1e813c03          	ld	s8,488(sp)
   110c0:	1e013c83          	ld	s9,480(sp)
   110c4:	1dc12407          	flw	fs0,476(sp)
   110c8:	1d812487          	flw	fs1,472(sp)
   110cc:	1d412907          	flw	fs2,468(sp)
   110d0:	1d012987          	flw	fs3,464(sp)
   110d4:	1cc12a07          	flw	fs4,460(sp)
   110d8:	1c812a87          	flw	fs5,456(sp)
   110dc:	1c412b07          	flw	fs6,452(sp)
   110e0:	1c012b87          	flw	fs7,448(sp)
   110e4:	1bc12c07          	flw	fs8,444(sp)
   110e8:	1b812c87          	flw	fs9,440(sp)
   110ec:	1b412d07          	flw	fs10,436(sp)
   110f0:	1b012d87          	flw	fs11,432(sp)
   110f4:	23010113          	add	sp,sp,560
   110f8:	00008067          	ret
   110fc:	d6f718e3          	bne	a4,a5,10e6c <_ZL11path_tracerRK10KernelArgs.constprop.0+0xda0>
   11100:	06012207          	flw	ft4,96(sp)
   11104:	00c12f07          	flw	ft10,12(sp)
   11108:	04812f87          	flw	ft11,72(sp)
   1110c:	04c12387          	flw	ft7,76(sp)
   11110:	05012307          	flw	ft6,80(sp)
   11114:	05412507          	flw	fa0,84(sp)
   11118:	05812287          	flw	ft5,88(sp)
   1111c:	05c12007          	flw	ft0,92(sp)
   11120:	a6061ee3          	bnez	a2,10b9c <_ZL11path_tracerRK10KernelArgs.constprop.0+0xad0>
   11124:	10227253          	fmul.s	ft4,ft4,ft2
   11128:	01c12687          	flw	fa3,28(sp)
   1112c:	8241a707          	flw	fa4,-2012(gp) # 12370 <__DATA_BEGIN__+0x24>
   11130:	81c1a787          	flw	fa5,-2020(gp) # 12368 <__DATA_BEGIN__+0x1c>
   11134:	03c12b87          	flw	fs7,60(sp)
   11138:	0046f6d3          	fadd.s	fa3,fa3,ft4
   1113c:	04012807          	flw	fa6,64(sp)
   11140:	04412a87          	flw	fs5,68(sp)
   11144:	20738b53          	fmv.s	fs6,ft7
   11148:	206309d3          	fmv.s	fs3,ft6
   1114c:	00d12e27          	fsw	fa3,28(sp)
   11150:	01812687          	flw	fa3,24(sp)
   11154:	20a50653          	fmv.s	fa2,fa0
   11158:	68e27743          	fmadd.s	fa4,ft4,fa4,fa3
   1115c:	00e12c27          	fsw	fa4,24(sp)
   11160:	01412707          	flw	fa4,20(sp)
   11164:	70f277c3          	fmadd.s	fa5,ft4,fa5,fa4
   11168:	00f12a27          	fsw	fa5,20(sp)
   1116c:	fa4ff06f          	j	10910 <_ZL11path_tracerRK10KernelArgs.constprop.0+0x844>
   11170:	a01596d3          	flt.s	a3,fa1,ft1
   11174:	c00692e3          	bnez	a3,10d78 <_ZL11path_tracerRK10KernelArgs.constprop.0+0xcac>
   11178:	01872683          	lw	a3,24(a4)
   1117c:	0187aa83          	lw	s5,24(a5)
   11180:	02061793          	sll	a5,a2,0x20
   11184:	0016da1b          	srlw	s4,a3,0x1
   11188:	007a7993          	and	s3,s4,7
   1118c:	01d7d713          	srl	a4,a5,0x1d
   11190:	00199b1b          	sllw	s6,s3,0x1
   11194:	ff16f793          	and	a5,a3,-15
   11198:	0167e7b3          	or	a5,a5,s6
   1119c:	00f7f793          	and	a5,a5,15
   111a0:	ff06fb13          	and	s6,a3,-16
   111a4:	11070713          	add	a4,a4,272
   111a8:	0a010c13          	add	s8,sp,160
   111ac:	01870733          	add	a4,a4,s8
   111b0:	0167e7b3          	or	a5,a5,s6
   111b4:	00098a13          	mv	s4,s3
   111b8:	0046d69b          	srlw	a3,a3,0x4
   111bc:	0af12623          	sw	a5,172(sp)
   111c0:	f0b72027          	fsw	fa1,-256(a4)
   111c4:	f1572223          	sw	s5,-252(a4)
   111c8:	0016061b          	addw	a2,a2,1
   111cc:	a65ff06f          	j	10c30 <_ZL11path_tracerRK10KernelArgs.constprop.0+0xb64>
   111d0:	10a1f553          	fmul.s	fa0,ft3,fa0
   111d4:	10317153          	fmul.s	ft2,ft2,ft3
   111d8:	5831f1cb          	fnmsub.s	ft3,ft3,ft3,fa1
   111dc:	10a575d3          	fmul.s	fa1,fa0,fa0
   111e0:	582175c3          	fmadd.s	fa1,ft2,ft2,fa1
   111e4:	5831f5c3          	fmadd.s	fa1,ft3,ft3,fa1
   111e8:	5805f5d3          	fsqrt.s	fa1,fa1
   111ec:	20211153          	fneg.s	ft2,ft2
   111f0:	20a51553          	fneg.s	fa0,fa0
   111f4:	18b1f1d3          	fdiv.s	ft3,ft3,fa1
   111f8:	18b17153          	fdiv.s	ft2,ft2,fa1
   111fc:	18b570d3          	fdiv.s	ft1,fa0,fa1
   11200:	ff8ff06f          	j	109f8 <_ZL11path_tracerRK10KernelArgs.constprop.0+0x92c>
   11204:	01c12307          	flw	ft6,28(sp)
   11208:	8081a107          	flw	ft2,-2040(gp) # 12354 <__DATA_BEGIN__+0x8>
   1120c:	8241a507          	flw	fa0,-2012(gp) # 12370 <__DATA_BEGIN__+0x24>
   11210:	302af143          	fmadd.s	ft2,fs5,ft2,ft6
   11214:	01812307          	flw	ft6,24(sp)
   11218:	0014041b          	addw	s0,s0,1
   1121c:	06412587          	flw	fa1,100(sp)
   11220:	06812187          	flw	ft3,104(sp)
   11224:	00212e27          	fsw	ft2,28(sp)
   11228:	8281a107          	flw	ft2,-2008(gp) # 12374 <__DATA_BEGIN__+0x28>
   1122c:	06c12687          	flw	fa3,108(sp)
   11230:	07012707          	flw	fa4,112(sp)
   11234:	302af143          	fmadd.s	ft2,fs5,ft2,ft6
   11238:	07412007          	flw	ft0,116(sp)
   1123c:	07812787          	flw	fa5,120(sp)
   11240:	07c12287          	flw	ft5,124(sp)
   11244:	08012207          	flw	ft4,128(sp)
   11248:	00212c27          	fsw	ft2,24(sp)
   1124c:	01412107          	flw	ft2,20(sp)
   11250:	08412607          	flw	fa2,132(sp)
   11254:	08812e87          	flw	ft9,136(sp)
   11258:	10aaf543          	fmadd.s	fa0,fs5,fa0,ft2
   1125c:	08c12887          	flw	fa7,140(sp)
   11260:	09012987          	flw	fs3,144(sp)
   11264:	09412087          	flw	ft1,148(sp)
   11268:	09812f07          	flw	ft10,152(sp)
   1126c:	00a12a27          	fsw	fa0,20(sp)
   11270:	01240463          	beq	s0,s2,11278 <_ZL11path_tracerRK10KernelArgs.constprop.0+0x11ac>
   11274:	f91fe06f          	j	10204 <_ZL11path_tracerRK10KernelArgs.constprop.0+0x138>
   11278:	d85ff06f          	j	10ffc <_ZL11path_tracerRK10KernelArgs.constprop.0+0xf30>
   1127c:	ff0007b7          	lui	a5,0xff000
   11280:	dfdff06f          	j	1107c <_ZL11path_tracerRK10KernelArgs.constprop.0+0xfb0>
   11284:	00008067          	ret
