    10894:      00012537                lui     x10,73728
    10898:      9f050513                addi    x10,x10,-1552
    1089c:      00259713                slli    x14,x11,2
    108a0:      00e50733                add     x14,x10,x14
    108a4:      00072703                lw      x14,x14,0
    108a8:      02059c93                slli    x25,x11,32
    108ac:      020cdc93                srli    x25,x25,x0
    108b0:      0157073b                addw    x14,x14,x21
    108b4:      5a0b9e63                bne     x23,x0,1468
    108b8:      02071693                slli    x13,x14,32
    108bc:      01b6d713                srli    x14,x13,x27
    108c0:      00ed8333                add     x6,x27,x14
    108c4:      00033683                ld      x13,x6,0
    108c8:      00833703                ld      x14,x6,8
    108cc:      01033f03                ld      x30,x6,16
    108d0:      0006861b                addiw   x12,x13,0
    108d4:      01765293                srli    x5,x12,x23
    108d8:      0012f293                andi    x5,x5,1
    108dc:      01833903                ld      x18,x6,24
    108e0:      4e029063                bne     x5,x0,1248
    108e4:      02861613                slli    x12,x12,40
    108e8:      3f800337                lui     x6,1065353216
    108ec:      02865613                srli    x12,x12,x8
    108f0:      00666633                or      x12,x12,x6
    108f4:      f00606d3                fmv.w.x f13,x12,x0
    108f8:      0186d613                srli    x12,x13,x24
    108fc:      b1cd2887                flw     f17,x26,-1252
    10900:      b209a707                flw     f14,x19,-1248
    10904:      0006061b                addiw   x12,x12,0
    10908:      01765313                srli    x6,x12,x23
    1090c:      00137313                andi    x6,x6,1
    10910:      7116f8c3                fmadd.s f17,f13,f17,f14
    10914:      4c031263                bne     x6,x0,1220
    10918:      02861613                slli    x12,x12,40
    1091c:      02865613                srli    x12,x12,x8
    10920:      3f800337                lui     x6,1065353216
    10924:      00666633                or      x12,x12,x6
    10928:      f00606d3                fmv.w.x f13,x12,x0
    1092c:      0306d693                srli    x13,x13,x16
    10930:      0107161b                slliw   x12,x14,16
    10934:      00c6e6b3                or      x13,x13,x12
    10938:      b1cd2807                flw     f16,x26,-1252
    1093c:      b209a707                flw     f14,x19,-1248
    10940:      0006869b                addiw   x13,x13,0
    10944:      0176d613                srli    x12,x13,x23
    10948:      00167613                andi    x12,x12,1
    1094c:      7106f843                fmadd.s f16,f13,f16,f14
    10950:      4a061463                bne     x12,x0,1192
    10954:      02869693                slli    x13,x13,40
    10958:      3f800637                lui     x12,1065353216
    1095c:      0286d693                srli    x13,x13,x8
    10960:      00c6e6b3                or      x13,x13,x12
    10964:      f00686d3                fmv.w.x f13,x13,x0
    10968:      00875693                srli    x13,x14,x8
    1096c:      b1cd2207                flw     f4,x26,-1252
    10970:      b209a707                flw     f14,x19,-1248
    10974:      0006869b                addiw   x13,x13,0
    10978:      0176d613                srli    x12,x13,x23
    1097c:      00167613                andi    x12,x12,1
    10980:      7046f243                fmadd.s f4,f13,f4,f14
    10984:      48061663                bne     x12,x0,1164
    10988:      02869693                slli    x13,x13,40
    1098c:      3f800637                lui     x12,1065353216
    10990:      0286d693                srli    x13,x13,x8
    10994:      00c6e6b3                or      x13,x13,x12
    10998:      f00686d3                fmv.w.x f13,x13,x0
    1099c:      b1cd2187                flw     f3,x26,-1252
    109a0:      b209a707                flw     f14,x19,-1248
    109a4:      42075693                srai    x13,x14,x0
    109a8:      0176d613                srli    x12,x13,x23
    109ac:      00167613                andi    x12,x12,1
    109b0:      7036f1c3                fmadd.s f3,f13,f3,f14
    109b4:      46061863                bne     x12,x0,1136
    109b8:      02869693                slli    x13,x13,40
    109bc:      0286d693                srli    x13,x13,x8
    109c0:      3f800637                lui     x12,1065353216
    109c4:      00c6e6b3                or      x13,x13,x12
    109c8:      f00686d3                fmv.w.x f13,x13,x0
    109cc:      03875713                srli    x14,x14,x24
    109d0:      008f169b                slliw   x13,x30,8
    109d4:      00d76733                or      x14,x14,x13
    109d8:      b1cd2107                flw     f2,x26,-1252
    109dc:      b209a707                flw     f14,x19,-1248
    109e0:      0007071b                addiw   x14,x14,0
    109e4:      01775693                srli    x13,x14,x23
    109e8:      0016f693                andi    x13,x13,1
    109ec:      7026f143                fmadd.s f2,f13,f2,f14
    109f0:      44069a63                bne     x13,x0,1108
    109f4:      02871713                slli    x14,x14,40
    109f8:      3f8006b7                lui     x13,1065353216
    109fc:      02875713                srli    x14,x14,x8
    10a00:      00d76733                or      x14,x14,x13
    10a04:      f00706d3                fmv.w.x f13,x14,x0
    10a08:      010f5713                srli    x14,x30,x16
    10a0c:      b1cd2087                flw     f1,x26,-1252
    10a10:      b209a707                flw     f14,x19,-1248
    10a14:      0007071b                addiw   x14,x14,0
    10a18:      01775693                srli    x13,x14,x23
    10a1c:      0016f693                andi    x13,x13,1
    10a20:      7016f0c3                fmadd.s f1,f13,f1,f14
    10a24:      42069c63                bne     x13,x0,1080
    10a28:      02871713                slli    x14,x14,40
    10a2c:      02875713                srli    x14,x14,x8
    10a30:      3f8006b7                lui     x13,1065353216
    10a34:      00d76733                or      x14,x14,x13
    10a38:      f00706d3                fmv.w.x f13,x14,x0
    10a3c:      b1cd2e07                flw     f28,x26,-1252
    10a40:      b209a707                flw     f14,x19,-1248
    10a44:      028f5713                srli    x14,x30,x8
    10a48:      71c6fe43                fmadd.s f28,f13,f28,f14
    10a4c:      400f4e63                blt     x30,x0,1052
    10a50:      3f8006b7                lui     x13,1065353216
    10a54:      00d76733                or      x14,x14,x13
    10a58:      b1cd2f07                flw     f30,x26,-1252
    10a5c:      b209a707                flw     f14,x19,-1248
    10a60:      f00706d3                fmv.w.x f13,x14,x0
    10a64:      71e6ff43                fmadd.s f30,f13,f30,f14
    10a68:      0009071b                addiw   x14,x18,0
    10a6c:      01775613                srli    x12,x14,x23
    10a70:      00167613                andi    x12,x12,1
    10a74:      34061263                bne     x12,x0,836
    10a78:      02871713                slli    x14,x14,40
    10a7c:      02875713                srli    x14,x14,x8
    10a80:      3f800637                lui     x12,1065353216
    10a84:      00c76733                or      x14,x14,x12
    10a88:      b1cd2e87                flw     f29,x26,-1252
    10a8c:      b209a707                flw     f14,x19,-1248
    10a90:      f00706d3                fmv.w.x f13,x14,x0
    10a94:      71d6fec3                fmadd.s f29,f13,f29,f14