
./bin/riscv/path-tracer:     file format elf64-littleriscv
./bin/riscv/path-tracer
architecture: riscv:rv64, flags 0x00000112:
EXEC_P, HAS_SYMS, D_PAGED
start address 0x00000000000100b0

Program Header:
0x70000003 off    0x0000000000002117 vaddr 0x0000000000000000 paddr 0x0000000000000000 align 2**0
         filesz 0x000000000000003d memsz 0x0000000000000000 flags r--
    LOAD off    0x0000000000000000 vaddr 0x0000000000010000 paddr 0x0000000000010000 align 2**12
         filesz 0x0000000000002108 memsz 0x0000000000002108 flags r-x

Sections:
Idx Name          Size      VMA               LMA               File off  Algn
  0 .text         00000efc  00000000000100b0  00000000000100b0  000000b0  2**2
                  CONTENTS, ALLOC, LOAD, READONLY, CODE
  1 .eh_frame     00000114  0000000000010fb0  0000000000010fb0  00000fb0  2**3
                  CONTENTS, ALLOC, LOAD, READONLY, DATA
  2 .sdata        00000044  00000000000120c4  00000000000120c4  000020c4  2**2
                  CONTENTS, ALLOC, LOAD, READONLY, DATA
  3 .comment      0000000f  0000000000000000  0000000000000000  00002108  2**0
                  CONTENTS, READONLY
  4 .riscv.attributes 0000003d  0000000000000000  0000000000000000  00002117  2**0
                  CONTENTS, READONLY
SYMBOL TABLE:
00000000000100b0 l    d  .text	0000000000000000 .text
0000000000010fb0 l    d  .eh_frame	0000000000000000 .eh_frame
00000000000120c4 l    d  .sdata	0000000000000000 .sdata
0000000000000000 l    d  .comment	0000000000000000 .comment
0000000000000000 l    d  .riscv.attributes	0000000000000000 .riscv.attributes
0000000000000000 l    df *ABS*	0000000000000000 path-tracer.cpp
00000000000100d0 l     F .text	0000000000000968 _ZL11path_tracerRK10GlobalData.constprop.0
00000000000128c4 g       *ABS*	0000000000000000 __global_pointer$
00000000000120c4 g       .sdata	0000000000000000 __SDATA_BEGIN__
0000000000012108 g       .sdata	0000000000000000 __BSS_END__
0000000000012108 g       .sdata	0000000000000000 __bss_start
00000000000100b0 g     F .text	0000000000000020 main
00000000000120c4 g       .sdata	0000000000000000 __DATA_BEGIN__
0000000000012108 g       .sdata	0000000000000000 _edata
0000000000012108 g       .sdata	0000000000000000 _end
0000000000010a38  w    F .text	0000000000000574 _Z9intersectRK12MeshPointersRK3RayR3Hit



Disassembly of section .text:

00000000000100b0 <main>:
   100b0:	ff010113          	add	sp,sp,-16
   100b4:	00113423          	sd	ra,8(sp)
   100b8:	00000097          	auipc	ra,0x0
   100bc:	018080e7          	jalr	24(ra) # 100d0 <_ZL11path_tracerRK10GlobalData.constprop.0>
   100c0:	00813083          	ld	ra,8(sp)
   100c4:	00000513          	li	a0,0
   100c8:	01010113          	add	sp,sp,16
   100cc:	00008067          	ret

00000000000100d0 <_ZL11path_tracerRK10GlobalData.constprop.0>:
   100d0:	eb010113          	add	sp,sp,-336
   100d4:	14113423          	sd	ra,328(sp)
   100d8:	14813023          	sd	s0,320(sp)
   100dc:	12913c23          	sd	s1,312(sp)
   100e0:	13213823          	sd	s2,304(sp)
   100e4:	13313423          	sd	s3,296(sp)
   100e8:	13413023          	sd	s4,288(sp)
   100ec:	11513c23          	sd	s5,280(sp)
   100f0:	11613823          	sd	s6,272(sp)
   100f4:	11713423          	sd	s7,264(sp)
   100f8:	11813023          	sd	s8,256(sp)
   100fc:	0f913c23          	sd	s9,248(sp)
   10100:	0fa13823          	sd	s10,240(sp)
   10104:	0fb13423          	sd	s11,232(sp)
   10108:	0c812e27          	fsw	fs0,220(sp)
   1010c:	0c912c27          	fsw	fs1,216(sp)
   10110:	0d212a27          	fsw	fs2,212(sp)
   10114:	0d312827          	fsw	fs3,208(sp)
   10118:	0d412627          	fsw	fs4,204(sp)
   1011c:	0d512427          	fsw	fs5,200(sp)
   10120:	0d612227          	fsw	fs6,196(sp)
   10124:	0d712027          	fsw	fs7,192(sp)
   10128:	0b812e27          	fsw	fs8,188(sp)
   1012c:	0b912c27          	fsw	fs9,184(sp)
   10130:	0ba12a27          	fsw	fs10,180(sp)
   10134:	0bb12827          	fsw	fs11,176(sp)
   10138:	0000070b          	fchthrd	a4
   1013c:	10802783          	lw	a5,264(zero) # 108 <main-0xffa8>
   10140:	0007071b          	sext.w	a4,a4
   10144:	02e13c23          	sd	a4,56(sp)
   10148:	06f77ee3          	bgeu	a4,a5,109c4 <_ZL11path_tracerRK10GlobalData.constprop.0+0x8f4>
   1014c:	00012c37          	lui	s8,0x12
   10150:	00012ab7          	lui	s5,0x12
   10154:	00012b37          	lui	s6,0x12
   10158:	10002683          	lw	a3,256(zero) # 100 <main-0xffb0>
   1015c:	03813503          	ld	a0,56(sp)
   10160:	e9f8d5b7          	lui	a1,0xe9f8d
   10164:	c1d5859b          	addw	a1,a1,-995 # ffffffffe9f8cc1d <__global_pointer$+0xffffffffe9f7a359>
   10168:	02d5763b          	remuw	a2,a0,a3
   1016c:	0015071b          	addw	a4,a0,1
   10170:	0137179b          	sllw	a5,a4,0x13
   10174:	40e787bb          	subw	a5,a5,a4
   10178:	00c7979b          	sllw	a5,a5,0xc
   1017c:	40e787bb          	subw	a5,a5,a4
   10180:	7ed56737          	lui	a4,0x7ed56
   10184:	d167071b          	addw	a4,a4,-746 # 7ed55d16 <__global_pointer$+0x7ed43452>
   10188:	00e787bb          	addw	a5,a5,a4
   1018c:	0137d71b          	srlw	a4,a5,0x13
   10190:	00f74733          	xor	a4,a4,a5
   10194:	c761c7b7          	lui	a5,0xc761c
   10198:	23c78793          	add	a5,a5,572 # ffffffffc761c23c <__global_pointer$+0xffffffffc7609978>
   1019c:	0007071b          	sext.w	a4,a4
   101a0:	00f74733          	xor	a4,a4,a5
   101a4:	0057179b          	sllw	a5,a4,0x5
   101a8:	00e787bb          	addw	a5,a5,a4
   101ac:	16566737          	lui	a4,0x16566
   101b0:	7b17071b          	addw	a4,a4,1969 # 165667b1 <__global_pointer$+0x16553eed>
   101b4:	00e7873b          	addw	a4,a5,a4
   101b8:	0097171b          	sllw	a4,a4,0x9
   101bc:	00b787bb          	addw	a5,a5,a1
   101c0:	00e7c7b3          	xor	a5,a5,a4
   101c4:	0037971b          	sllw	a4,a5,0x3
   101c8:	00f707bb          	addw	a5,a4,a5
   101cc:	fd704737          	lui	a4,0xfd704
   101d0:	6c57071b          	addw	a4,a4,1733 # fffffffffd7046c5 <__global_pointer$+0xfffffffffd6f1e01>
   101d4:	00e787bb          	addw	a5,a5,a4
   101d8:	00012737          	lui	a4,0x12
   101dc:	0c872787          	flw	fa5,200(a4) # 120c8 <__DATA_BEGIN__+0x4>
   101e0:	11802c83          	lw	s9,280(zero) # 118 <main-0xff98>
   101e4:	17002687          	flw	fa3,368(zero) # 170 <main-0xff40>
   101e8:	0107d41b          	srlw	s0,a5,0x10
   101ec:	00f44433          	xor	s0,s0,a5
   101f0:	02d556bb          	divuw	a3,a0,a3
   101f4:	d0167753          	fcvt.s.wu	fa4,a2
   101f8:	b55a57b7          	lui	a5,0xb55a5
   101fc:	f0978793          	add	a5,a5,-247 # ffffffffb55a4f09 <__global_pointer$+0xffffffffb5592645>
   10200:	00f77753          	fadd.s	fa4,fa4,fa5
   10204:	00f44433          	xor	s0,s0,a5
   10208:	02d12027          	fsw	fa3,32(sp)
   1020c:	0004041b          	sext.w	s0,s0
   10210:	00e12c27          	fsw	fa4,24(sp)
   10214:	17402707          	flw	fa4,372(zero) # 174 <main-0xff3c>
   10218:	02e12227          	fsw	fa4,36(sp)
   1021c:	17802707          	flw	fa4,376(zero) # 178 <main-0xff38>
   10220:	02e12427          	fsw	fa4,40(sp)
   10224:	17c02707          	flw	fa4,380(zero) # 17c <main-0xff34>
   10228:	02e12627          	fsw	fa4,44(sp)
   1022c:	18002707          	flw	fa4,384(zero) # 180 <main-0xff30>
   10230:	02e12827          	fsw	fa4,48(sp)
   10234:	14802707          	flw	fa4,328(zero) # 148 <main-0xff68>
   10238:	02e12a27          	fsw	fa4,52(sp)
   1023c:	d016f753          	fcvt.s.wu	fa4,a3
   10240:	00f777d3          	fadd.s	fa5,fa4,fa5
   10244:	00f12e27          	fsw	fa5,28(sp)
   10248:	7e0c8463          	beqz	s9,10a30 <_ZL11path_tracerRK10GlobalData.constprop.0+0x960>
   1024c:	f0000953          	fmv.w.x	fs2,zero
   10250:	00012a37          	lui	s4,0x12
   10254:	00012823          	sw	zero,16(sp)
   10258:	00012623          	sw	zero,12(sp)
   1025c:	00000b93          	li	s7,0
   10260:	00012db7          	lui	s11,0x12
   10264:	00012d37          	lui	s10,0x12
   10268:	000129b7          	lui	s3,0x12
   1026c:	00012937          	lui	s2,0x12
   10270:	15002707          	flw	fa4,336(zero) # 150 <main-0xff60>
   10274:	0ccda687          	flw	fa3,204(s11) # 120cc <__DATA_BEGIN__+0x8>
   10278:	01c12787          	flw	fa5,28(sp)
   1027c:	01812607          	flw	fa2,24(sp)
   10280:	0d0d2587          	flw	fa1,208(s10) # 120d0 <__DATA_BEGIN__+0xc>
   10284:	68e7f743          	fmadd.s	fa4,fa5,fa4,fa3
   10288:	14c02787          	flw	fa5,332(zero) # 14c <main-0xff64>
   1028c:	000127b7          	lui	a5,0x12
   10290:	0c492407          	flw	fs0,196(s2) # 120c4 <__DATA_BEGIN__>
   10294:	68f677c3          	fmadd.s	fa5,fa2,fa5,fa3
   10298:	02412607          	flw	fa2,36(sp)
   1029c:	02012687          	flw	fa3,32(sp)
   102a0:	208404d3          	fmv.s	fs1,fs0
   102a4:	10e67553          	fmul.s	fa0,fa2,fa4
   102a8:	16c02607          	flw	fa2,364(zero) # 16c <main-0xff44>
   102ac:	10e6f6d3          	fmul.s	fa3,fa3,fa4
   102b0:	00000493          	li	s1,0
   102b4:	10c77753          	fmul.s	fa4,fa4,fa2
   102b8:	16402607          	flw	fa2,356(zero) # 164 <main-0xff4c>
   102bc:	68c7f643          	fmadd.s	fa2,fa5,fa2,fa3
   102c0:	16802687          	flw	fa3,360(zero) # 168 <main-0xff48>
   102c4:	50d7f6c3          	fmadd.s	fa3,fa5,fa3,fa0
   102c8:	16002507          	flw	fa0,352(zero) # 160 <main-0xff50>
   102cc:	06b12627          	fsw	fa1,108(sp)
   102d0:	0d49a587          	flw	fa1,212(s3) # 120d4 <__DATA_BEGIN__+0x10>
   102d4:	70a7f7c3          	fmadd.s	fa5,fa5,fa0,fa4
   102d8:	02c12707          	flw	fa4,44(sp)
   102dc:	08e67653          	fsub.s	fa2,fa2,fa4
   102e0:	03012707          	flw	fa4,48(sp)
   102e4:	08e6f753          	fsub.s	fa4,fa3,fa4
   102e8:	02812687          	flw	fa3,40(sp)
   102ec:	06c12a27          	fsw	fa2,116(sp)
   102f0:	08d7f7d3          	fsub.s	fa5,fa5,fa3
   102f4:	06e12c27          	fsw	fa4,120(sp)
   102f8:	0dc7a687          	flw	fa3,220(a5) # 120dc <__DATA_BEGIN__+0x18>
   102fc:	06f12827          	fsw	fa5,112(sp)
   10300:	15402787          	flw	fa5,340(zero) # 154 <main-0xff5c>
   10304:	00d12a27          	fsw	fa3,20(sp)
   10308:	06f12027          	fsw	fa5,96(sp)
   1030c:	15802787          	flw	fa5,344(zero) # 158 <main-0xff58>
   10310:	06f12227          	fsw	fa5,100(sp)
   10314:	15c02787          	flw	fa5,348(zero) # 15c <main-0xff54>
   10318:	06b12e27          	fsw	fa1,124(sp)
   1031c:	08012223          	sw	zero,132(sp)
   10320:	06f12427          	fsw	fa5,104(sp)
   10324:	03412787          	flw	fa5,52(sp)
   10328:	08f12027          	fsw	fa5,128(sp)
   1032c:	04b12027          	fsw	fa1,64(sp)
   10330:	0ac0006f          	j	103dc <_ZL11path_tracerRK10GlobalData.constprop.0+0x30c>
   10334:	10d076d3          	fmul.s	fa3,ft0,fa3
   10338:	10207153          	fmul.s	ft2,ft0,ft2
   1033c:	1800704b          	fnmsub.s	ft0,ft0,ft0,ft3
   10340:	10d6f253          	fmul.s	ft4,fa3,fa3
   10344:	20217243          	fmadd.s	ft4,ft2,ft2,ft4
   10348:	20007243          	fmadd.s	ft4,ft0,ft0,ft4
   1034c:	58027253          	fsqrt.s	ft4,ft4
   10350:	20211153          	fneg.s	ft2,ft2
   10354:	20d696d3          	fneg.s	fa3,fa3
   10358:	184071d3          	fdiv.s	ft3,ft0,ft4
   1035c:	18417153          	fdiv.s	ft2,ft2,ft4
   10360:	1846f6d3          	fdiv.s	fa3,fa3,ft4
   10364:	10dd7053          	fmul.s	ft0,fs10,fa3
   10368:	101cf253          	fmul.s	ft4,fs9,ft1
   1036c:	102df3d3          	fmul.s	ft7,fs11,ft2
   10370:	101d7353          	fmul.s	ft6,fs10,ft1
   10374:	103cf2d3          	fmul.s	ft5,fs9,ft3
   10378:	003df047          	fmsub.s	ft0,fs11,ft3,ft0
   1037c:	20a17243          	fmadd.s	ft4,ft2,fa0,ft4
   10380:	38dcf747          	fmsub.s	fa4,fs9,fa3,ft7
   10384:	30a1f1c3          	fmadd.s	ft3,ft3,fa0,ft6
   10388:	101df5d3          	fmul.s	fa1,fs11,ft1
   1038c:	282d77c7          	fmsub.s	fa5,fs10,ft2,ft5
   10390:	20c07043          	fmadd.s	ft0,ft0,fa2,ft4
   10394:	18c77743          	fmadd.s	fa4,fa4,fa2,ft3
   10398:	58a6f5c3          	fmadd.s	fa1,fa3,fa0,fa1
   1039c:	100076d3          	fmul.s	fa3,ft0,ft0
   103a0:	58c7f7c3          	fmadd.s	fa5,fa5,fa2,fa1
   103a4:	68e776c3          	fmadd.s	fa3,fa4,fa4,fa3
   103a8:	68f7f6c3          	fmadd.s	fa3,fa5,fa5,fa3
   103ac:	5806f6d3          	fsqrt.s	fa3,fa3
   103b0:	18d77753          	fdiv.s	fa4,fa4,fa3
   103b4:	0d8a2607          	flw	fa2,216(s4) # 120d8 <__DATA_BEGIN__+0x14>
   103b8:	0d49a587          	flw	fa1,212(s3)
   103bc:	0014849b          	addw	s1,s1,1
   103c0:	10c47453          	fmul.s	fs0,fs0,fa2
   103c4:	04b12027          	fsw	fa1,64(sp)
   103c8:	18d07053          	fdiv.s	ft0,ft0,fa3
   103cc:	06e12827          	fsw	fa4,112(sp)
   103d0:	18d7f7d3          	fdiv.s	fa5,fa5,fa3
   103d4:	06012a27          	fsw	ft0,116(sp)
   103d8:	06f12c27          	fsw	fa5,120(sp)
   103dc:	04010613          	add	a2,sp,64
   103e0:	06010593          	add	a1,sp,96
   103e4:	13000513          	li	a0,304
   103e8:	00000097          	auipc	ra,0x0
   103ec:	650080e7          	jalr	1616(ra) # 10a38 <_Z9intersectRK12MeshPointersRK3RayR3Hit>
   103f0:	4e050663          	beqz	a0,108dc <_ZL11path_tracerRK10GlobalData.constprop.0+0x80c>
   103f4:	04c16783          	lwu	a5,76(sp)
   103f8:	14003683          	ld	a3,320(zero) # 140 <main-0xff70>
   103fc:	00179713          	sll	a4,a5,0x1
   10400:	00f70733          	add	a4,a4,a5
   10404:	13803783          	ld	a5,312(zero) # 138 <main-0xff78>
   10408:	00271713          	sll	a4,a4,0x2
   1040c:	00e787b3          	add	a5,a5,a4
   10410:	0007e503          	lwu	a0,0(a5)
   10414:	0087e583          	lwu	a1,8(a5)
   10418:	0047e803          	lwu	a6,4(a5)
   1041c:	00151713          	sll	a4,a0,0x1
   10420:	00159613          	sll	a2,a1,0x1
   10424:	00181793          	sll	a5,a6,0x1
   10428:	010787b3          	add	a5,a5,a6
   1042c:	00a70733          	add	a4,a4,a0
   10430:	00b60633          	add	a2,a2,a1
   10434:	00261613          	sll	a2,a2,0x2
   10438:	00279793          	sll	a5,a5,0x2
   1043c:	00271713          	sll	a4,a4,0x2
   10440:	00f687b3          	add	a5,a3,a5
   10444:	00e68733          	add	a4,a3,a4
   10448:	00c686b3          	add	a3,a3,a2
   1044c:	00072687          	flw	fa3,0(a4)
   10450:	00872087          	flw	ft1,8(a4)
   10454:	0007a587          	flw	fa1,0(a5)
   10458:	0086a787          	flw	fa5,8(a3)
   1045c:	00472007          	flw	ft0,4(a4)
   10460:	08d5f5d3          	fsub.s	fa1,fa1,fa3
   10464:	0817f7d3          	fsub.s	fa5,fa5,ft1
   10468:	0087a707          	flw	fa4,8(a5)
   1046c:	0006a607          	flw	fa2,0(a3)
   10470:	0046a507          	flw	fa0,4(a3)
   10474:	08177753          	fsub.s	fa4,fa4,ft1
   10478:	10f5f153          	fmul.s	ft2,fa1,fa5
   1047c:	08d67653          	fsub.s	fa2,fa2,fa3
   10480:	08057553          	fsub.s	fa0,fa0,ft0
   10484:	0047a687          	flw	fa3,4(a5)
   10488:	0806f6d3          	fsub.s	fa3,fa3,ft0
   1048c:	10a770d3          	fmul.s	ft1,fa4,fa0
   10490:	10c77747          	fmsub.s	fa4,fa4,fa2,ft2
   10494:	10c6f653          	fmul.s	fa2,fa3,fa2
   10498:	08f6f7c7          	fmsub.s	fa5,fa3,fa5,ft1
   1049c:	10e776d3          	fmul.s	fa3,fa4,fa4
   104a0:	60a5f5c7          	fmsub.s	fa1,fa1,fa0,fa2
   104a4:	68f7f6c3          	fmadd.s	fa3,fa5,fa5,fa3
   104a8:	68b5f6c3          	fmadd.s	fa3,fa1,fa1,fa3
   104ac:	5806f6d3          	fsqrt.s	fa3,fa3
   104b0:	04012607          	flw	fa2,64(sp)
   104b4:	06012507          	flw	fa0,96(sp)
   104b8:	07012107          	flw	ft2,112(sp)
   104bc:	07412087          	flw	ft1,116(sp)
   104c0:	07812007          	flw	ft0,120(sp)
   104c4:	50267b43          	fmadd.s	fs6,fa2,ft2,fa0
   104c8:	06412507          	flw	fa0,100(sp)
   104cc:	06813703          	ld	a4,104(sp)
   104d0:	07813783          	ld	a5,120(sp)
   104d4:	50167bc3          	fmadd.s	fs7,fa2,ft1,fa0
   104d8:	06812507          	flw	fa0,104(sp)
   104dc:	08e13823          	sd	a4,144(sp)
   104e0:	08013703          	ld	a4,128(sp)
   104e4:	50067c43          	fmadd.s	fs8,fa2,ft0,fa0
   104e8:	0af13023          	sd	a5,160(sp)
   104ec:	0ae13423          	sd	a4,168(sp)
   104f0:	09612427          	fsw	fs6,136(sp)
   104f4:	09712627          	fsw	fs7,140(sp)
   104f8:	09812827          	fsw	fs8,144(sp)
   104fc:	12002987          	flw	fs3,288(zero) # 120 <main-0xff90>
   10500:	0207d793          	srl	a5,a5,0x20
   10504:	05010613          	add	a2,sp,80
   10508:	09312c27          	fsw	fs3,152(sp)
   1050c:	12402a07          	flw	fs4,292(zero) # 124 <main-0xff8c>
   10510:	08810593          	add	a1,sp,136
   10514:	13000513          	li	a0,304
   10518:	09412e27          	fsw	fs4,156(sp)
   1051c:	12802a87          	flw	fs5,296(zero) # 128 <main-0xff88>
   10520:	18d7fd53          	fdiv.s	fs10,fa5,fa3
   10524:	04f12823          	sw	a5,80(sp)
   10528:	0b512027          	fsw	fs5,160(sp)
   1052c:	18d77cd3          	fdiv.s	fs9,fa4,fa3
   10530:	18d5fdd3          	fdiv.s	fs11,fa1,fa3
   10534:	00000097          	auipc	ra,0x0
   10538:	504080e7          	jalr	1284(ra) # 10a38 <_Z9intersectRK12MeshPointersRK3RayR3Hit>
   1053c:	04051863          	bnez	a0,1058c <_ZL11path_tracerRK10GlobalData.constprop.0+0x4bc>
   10540:	114cf1d3          	fmul.s	ft3,fs9,fs4
   10544:	000127b7          	lui	a5,0x12
   10548:	0d87a787          	flw	fa5,216(a5) # 120d8 <__DATA_BEGIN__+0x14>
   1054c:	193d7043          	fmadd.s	ft0,fs10,fs3,ft3
   10550:	10f476d3          	fmul.s	fa3,fs0,fa5
   10554:	01412787          	flw	fa5,20(sp)
   10558:	015df643          	fmadd.s	fa2,fs11,fs5,ft0
   1055c:	10f6f253          	fmul.s	ft4,fa3,fa5
   10560:	f0000053          	fmv.w.x	ft0,zero
   10564:	0d87a787          	flw	fa5,216(a5)
   10568:	28061653          	fmax.s	fa2,fa2,ft0
   1056c:	10f6f1d3          	fmul.s	ft3,fa3,fa5
   10570:	00c12787          	flw	fa5,12(sp)
   10574:	90c6f943          	fmadd.s	fs2,fa3,fa2,fs2
   10578:	78c277c3          	fmadd.s	fa5,ft4,fa2,fa5
   1057c:	00f12627          	fsw	fa5,12(sp)
   10580:	01012787          	flw	fa5,16(sp)
   10584:	78c1f7c3          	fmadd.s	fa5,ft3,fa2,fa5
   10588:	00f12827          	fsw	fa5,16(sp)
   1058c:	11c02783          	lw	a5,284(zero) # 11c <main-0xff94>
   10590:	38f4f063          	bgeu	s1,a5,10910 <_ZL11path_tracerRK10GlobalData.constprop.0+0x840>
   10594:	00a4171b          	sllw	a4,s0,0xa
   10598:	0087073b          	addw	a4,a4,s0
   1059c:	0067579b          	srlw	a5,a4,0x6
   105a0:	00e7c7b3          	xor	a5,a5,a4
   105a4:	008006b7          	lui	a3,0x800
   105a8:	0037961b          	sllw	a2,a5,0x3
   105ac:	fff68693          	add	a3,a3,-1 # 7fffff <__global_pointer$+0x7ed73b>
   105b0:	00f6063b          	addw	a2,a2,a5
   105b4:	3f8005b7          	lui	a1,0x3f800
   105b8:	00d477b3          	and	a5,s0,a3
   105bc:	00b7e7b3          	or	a5,a5,a1
   105c0:	f00787d3          	fmv.w.x	fa5,a5
   105c4:	00b6571b          	srlw	a4,a2,0xb
   105c8:	00c74733          	xor	a4,a4,a2
   105cc:	0897f053          	fsub.s	ft0,fa5,fs1
   105d0:	07612027          	fsw	fs6,96(sp)
   105d4:	07712227          	fsw	fs7,100(sp)
   105d8:	07812427          	fsw	fs8,104(sp)
   105dc:	0007071b          	sext.w	a4,a4
   105e0:	58007053          	fsqrt.s	ft0,ft0
   105e4:	00f7179b          	sllw	a5,a4,0xf
   105e8:	00e787bb          	addw	a5,a5,a4
   105ec:	00d7f7b3          	and	a5,a5,a3
   105f0:	00b7e7b3          	or	a5,a5,a1
   105f4:	f00787d3          	fmv.w.x	fa5,a5
   105f8:	00a7179b          	sllw	a5,a4,0xa
   105fc:	00e787bb          	addw	a5,a5,a4
   10600:	0897f6d3          	fsub.s	fa3,fa5,fs1
   10604:	00f7971b          	sllw	a4,a5,0xf
   10608:	00e787bb          	addw	a5,a5,a4
   1060c:	00012737          	lui	a4,0x12
   10610:	0e072787          	flw	fa5,224(a4) # 120e0 <__DATA_BEGIN__+0x1c>
   10614:	0067d71b          	srlw	a4,a5,0x6
   10618:	00f747b3          	xor	a5,a4,a5
   1061c:	10f6f6d3          	fmul.s	fa3,fa3,fa5
   10620:	0037971b          	sllw	a4,a5,0x3
   10624:	00f7073b          	addw	a4,a4,a5
   10628:	00b7579b          	srlw	a5,a4,0xb
   1062c:	00e7c7b3          	xor	a5,a5,a4
   10630:	00012737          	lui	a4,0x12
   10634:	0e472787          	flw	fa5,228(a4) # 120e4 <__DATA_BEGIN__+0x20>
   10638:	20d6a653          	fabs.s	fa2,fa3
   1063c:	00f7941b          	sllw	s0,a5,0xf
   10640:	00f4043b          	addw	s0,s0,a5
   10644:	10f67553          	fmul.s	fa0,fa2,fa5
   10648:	00200713          	li	a4,2
   1064c:	c01517d3          	fcvt.wu.s	a5,fa0,rtz
   10650:	0007879b          	sext.w	a5,a5
   10654:	1ee78463          	beq	a5,a4,1083c <_ZL11path_tracerRK10GlobalData.constprop.0+0x76c>
   10658:	16f76463          	bltu	a4,a5,107c0 <_ZL11path_tracerRK10GlobalData.constprop.0+0x6f0>
   1065c:	24078a63          	beqz	a5,108b0 <_ZL11path_tracerRK10GlobalData.constprop.0+0x7e0>
   10660:	0f4b2507          	flw	fa0,244(s6) # 120f4 <__DATA_BEGIN__+0x30>
   10664:	000127b7          	lui	a5,0x12
   10668:	0f07a087          	flw	ft1,240(a5) # 120f0 <__DATA_BEGIN__+0x2c>
   1066c:	08c57653          	fsub.s	fa2,fa0,fa2
   10670:	000127b7          	lui	a5,0x12
   10674:	0e87a507          	flw	fa0,232(a5) # 120e8 <__DATA_BEGIN__+0x24>
   10678:	000127b7          	lui	a5,0x12
   1067c:	0ec7a107          	flw	ft2,236(a5) # 120ec <__DATA_BEGIN__+0x28>
   10680:	10c67653          	fmul.s	fa2,fa2,fa2
   10684:	10a67543          	fmadd.s	fa0,fa2,fa0,ft2
   10688:	08c57143          	fmadd.s	ft2,fa0,fa2,ft1
   1068c:	08c5754f          	fnmadd.s	fa0,fa0,fa2,ft1
   10690:	10217153          	fmul.s	ft2,ft2,ft2
   10694:	000127b7          	lui	a5,0x12
   10698:	0f87a607          	flw	fa2,248(a5) # 120f8 <__DATA_BEGIN__+0x34>
   1069c:	0e4aa087          	flw	ft1,228(s5) # 120e4 <__DATA_BEGIN__+0x20>
   106a0:	00200713          	li	a4,2
   106a4:	08c6f6d3          	fsub.s	fa3,fa3,fa2
   106a8:	20d6a653          	fabs.s	fa2,fa3
   106ac:	101670d3          	fmul.s	ft1,fa2,ft1
   106b0:	c01097d3          	fcvt.wu.s	a5,ft1,rtz
   106b4:	0007879b          	sext.w	a5,a5
   106b8:	1ce78063          	beq	a5,a4,10878 <_ZL11path_tracerRK10GlobalData.constprop.0+0x7a8>
   106bc:	0cf76463          	bltu	a4,a5,10784 <_ZL11path_tracerRK10GlobalData.constprop.0+0x6b4>
   106c0:	14078863          	beqz	a5,10810 <_ZL11path_tracerRK10GlobalData.constprop.0+0x740>
   106c4:	0f4b2687          	flw	fa3,244(s6)
   106c8:	000127b7          	lui	a5,0x12
   106cc:	0f07a187          	flw	ft3,240(a5) # 120f0 <__DATA_BEGIN__+0x2c>
   106d0:	08c6f6d3          	fsub.s	fa3,fa3,fa2
   106d4:	000127b7          	lui	a5,0x12
   106d8:	0e87a607          	flw	fa2,232(a5) # 120e8 <__DATA_BEGIN__+0x24>
   106dc:	000127b7          	lui	a5,0x12
   106e0:	0ec7a087          	flw	ft1,236(a5) # 120ec <__DATA_BEGIN__+0x28>
   106e4:	10d6f6d3          	fmul.s	fa3,fa3,fa3
   106e8:	08c6f643          	fmadd.s	fa2,fa3,fa2,ft1
   106ec:	18d670c3          	fmadd.s	ft1,fa2,fa3,ft3
   106f0:	18d6764f          	fnmadd.s	fa2,fa2,fa3,ft3
   106f4:	1010f143          	fmadd.s	ft2,ft1,ft1,ft2
   106f8:	580176d3          	fsqrt.s	fa3,ft2
   106fc:	18d67653          	fdiv.s	fa2,fa2,fa3
   10700:	0c492187          	flw	ft3,196(s2)
   10704:	18d57553          	fdiv.s	fa0,fa0,fa3
   10708:	10067653          	fmul.s	fa2,fa2,ft0
   1070c:	10c670d3          	fmul.s	ft1,fa2,fa2
   10710:	10057553          	fmul.s	fa0,fa0,ft0
   10714:	08a570c3          	fmadd.s	ft1,fa0,fa0,ft1
   10718:	0811f0d3          	fsub.s	ft1,ft3,ft1
   1071c:	5800f0d3          	fsqrt.s	ft1,ft1
   10720:	119cf6d3          	fmul.s	fa3,fs9,fs9
   10724:	69ad76c3          	fmadd.s	fa3,fs10,fs10,fa3
   10728:	69bdf6c3          	fmadd.s	fa3,fs11,fs11,fa3
   1072c:	5806f6d3          	fsqrt.s	fa3,fa3
   10730:	18dd7053          	fdiv.s	ft0,fs10,fa3
   10734:	000127b7          	lui	a5,0x12
   10738:	0fc7a207          	flw	ft4,252(a5) # 120fc <__DATA_BEGIN__+0x38>
   1073c:	200022d3          	fabs.s	ft5,ft0
   10740:	18dcf153          	fdiv.s	ft2,fs9,fa3
   10744:	a04297d3          	flt.s	a5,ft5,ft4
   10748:	18ddf6d3          	fdiv.s	fa3,fs11,fa3
   1074c:	be0794e3          	bnez	a5,10334 <_ZL11path_tracerRK10GlobalData.constprop.0+0x264>
   10750:	10d176d3          	fmul.s	fa3,ft2,fa3
   10754:	10207053          	fmul.s	ft0,ft0,ft2
   10758:	1821714b          	fnmsub.s	ft2,ft2,ft2,ft3
   1075c:	10d6f253          	fmul.s	ft4,fa3,fa3
   10760:	20007243          	fmadd.s	ft4,ft0,ft0,ft4
   10764:	20217243          	fmadd.s	ft4,ft2,ft2,ft4
   10768:	58027253          	fsqrt.s	ft4,ft4
   1076c:	20001053          	fneg.s	ft0,ft0
   10770:	20d696d3          	fneg.s	fa3,fa3
   10774:	18417153          	fdiv.s	ft2,ft2,ft4
   10778:	184071d3          	fdiv.s	ft3,ft0,ft4
   1077c:	1846f6d3          	fdiv.s	fa3,fa3,ft4
   10780:	be5ff06f          	j	10364 <_ZL11path_tracerRK10GlobalData.constprop.0+0x294>
   10784:	00300713          	li	a4,3
   10788:	08e79063          	bne	a5,a4,10808 <_ZL11path_tracerRK10GlobalData.constprop.0+0x738>
   1078c:	0e0c2687          	flw	fa3,224(s8) # 120e0 <__DATA_BEGIN__+0x1c>
   10790:	000127b7          	lui	a5,0x12
   10794:	08c6f6d3          	fsub.s	fa3,fa3,fa2
   10798:	0e87a607          	flw	fa2,232(a5) # 120e8 <__DATA_BEGIN__+0x24>
   1079c:	000127b7          	lui	a5,0x12
   107a0:	0ec7a087          	flw	ft1,236(a5) # 120ec <__DATA_BEGIN__+0x28>
   107a4:	000127b7          	lui	a5,0x12
   107a8:	10d6f6d3          	fmul.s	fa3,fa3,fa3
   107ac:	08c6f643          	fmadd.s	fa2,fa3,fa2,ft1
   107b0:	0f07a087          	flw	ft1,240(a5) # 120f0 <__DATA_BEGIN__+0x2c>
   107b4:	08d67643          	fmadd.s	fa2,fa2,fa3,ft1
   107b8:	10c67143          	fmadd.s	ft2,fa2,fa2,ft2
   107bc:	f3dff06f          	j	106f8 <_ZL11path_tracerRK10GlobalData.constprop.0+0x628>
   107c0:	f0000153          	fmv.w.x	ft2,zero
   107c4:	00300713          	li	a4,3
   107c8:	20210553          	fmv.s	fa0,ft2
   107cc:	ece794e3          	bne	a5,a4,10694 <_ZL11path_tracerRK10GlobalData.constprop.0+0x5c4>
   107d0:	000127b7          	lui	a5,0x12
   107d4:	0e07a787          	flw	fa5,224(a5) # 120e0 <__DATA_BEGIN__+0x1c>
   107d8:	000127b7          	lui	a5,0x12
   107dc:	0e87a507          	flw	fa0,232(a5) # 120e8 <__DATA_BEGIN__+0x24>
   107e0:	08c7f653          	fsub.s	fa2,fa5,fa2
   107e4:	000127b7          	lui	a5,0x12
   107e8:	0ec7a087          	flw	ft1,236(a5) # 120ec <__DATA_BEGIN__+0x28>
   107ec:	000127b7          	lui	a5,0x12
   107f0:	10c67653          	fmul.s	fa2,fa2,fa2
   107f4:	08a67543          	fmadd.s	fa0,fa2,fa0,ft1
   107f8:	0f07a087          	flw	ft1,240(a5) # 120f0 <__DATA_BEGIN__+0x2c>
   107fc:	08c57543          	fmadd.s	fa0,fa0,fa2,ft1
   10800:	10a57153          	fmul.s	ft2,fa0,fa0
   10804:	e91ff06f          	j	10694 <_ZL11path_tracerRK10GlobalData.constprop.0+0x5c4>
   10808:	f0000653          	fmv.w.x	fa2,zero
   1080c:	eedff06f          	j	106f8 <_ZL11path_tracerRK10GlobalData.constprop.0+0x628>
   10810:	10d6f0d3          	fmul.s	ft1,fa3,fa3
   10814:	000127b7          	lui	a5,0x12
   10818:	0e87a607          	flw	fa2,232(a5) # 120e8 <__DATA_BEGIN__+0x24>
   1081c:	000127b7          	lui	a5,0x12
   10820:	0ec7a687          	flw	fa3,236(a5) # 120ec <__DATA_BEGIN__+0x28>
   10824:	000127b7          	lui	a5,0x12
   10828:	68c0f643          	fmadd.s	fa2,ft1,fa2,fa3
   1082c:	0f07a687          	flw	fa3,240(a5) # 120f0 <__DATA_BEGIN__+0x2c>
   10830:	68c0f643          	fmadd.s	fa2,ft1,fa2,fa3
   10834:	10c67143          	fmadd.s	ft2,fa2,fa2,ft2
   10838:	ec1ff06f          	j	106f8 <_ZL11path_tracerRK10GlobalData.constprop.0+0x628>
   1083c:	000127b7          	lui	a5,0x12
   10840:	0f47a787          	flw	fa5,244(a5) # 120f4 <__DATA_BEGIN__+0x30>
   10844:	000127b7          	lui	a5,0x12
   10848:	0f07a087          	flw	ft1,240(a5) # 120f0 <__DATA_BEGIN__+0x2c>
   1084c:	08f67653          	fsub.s	fa2,fa2,fa5
   10850:	000127b7          	lui	a5,0x12
   10854:	0e87a507          	flw	fa0,232(a5) # 120e8 <__DATA_BEGIN__+0x24>
   10858:	000127b7          	lui	a5,0x12
   1085c:	0ec7a107          	flw	ft2,236(a5) # 120ec <__DATA_BEGIN__+0x28>
   10860:	10c67653          	fmul.s	fa2,fa2,fa2
   10864:	10a67543          	fmadd.s	fa0,fa2,fa0,ft2
   10868:	08a67143          	fmadd.s	ft2,fa2,fa0,ft1
   1086c:	08a6754f          	fnmadd.s	fa0,fa2,fa0,ft1
   10870:	10217153          	fmul.s	ft2,ft2,ft2
   10874:	e21ff06f          	j	10694 <_ZL11path_tracerRK10GlobalData.constprop.0+0x5c4>
   10878:	0f4b2687          	flw	fa3,244(s6)
   1087c:	000127b7          	lui	a5,0x12
   10880:	0f07a187          	flw	ft3,240(a5) # 120f0 <__DATA_BEGIN__+0x2c>
   10884:	08d67653          	fsub.s	fa2,fa2,fa3
   10888:	000127b7          	lui	a5,0x12
   1088c:	0e87a687          	flw	fa3,232(a5) # 120e8 <__DATA_BEGIN__+0x24>
   10890:	000127b7          	lui	a5,0x12
   10894:	0ec7a087          	flw	ft1,236(a5) # 120ec <__DATA_BEGIN__+0x28>
   10898:	10c67653          	fmul.s	fa2,fa2,fa2
   1089c:	08d676c3          	fmadd.s	fa3,fa2,fa3,ft1
   108a0:	18d670c3          	fmadd.s	ft1,fa2,fa3,ft3
   108a4:	18d6764f          	fnmadd.s	fa2,fa2,fa3,ft3
   108a8:	1010f143          	fmadd.s	ft2,ft1,ft1,ft2
   108ac:	e4dff06f          	j	106f8 <_ZL11path_tracerRK10GlobalData.constprop.0+0x628>
   108b0:	10d6f553          	fmul.s	fa0,fa3,fa3
   108b4:	000127b7          	lui	a5,0x12
   108b8:	0e87a607          	flw	fa2,232(a5) # 120e8 <__DATA_BEGIN__+0x24>
   108bc:	000127b7          	lui	a5,0x12
   108c0:	0ec7a087          	flw	ft1,236(a5) # 120ec <__DATA_BEGIN__+0x28>
   108c4:	000127b7          	lui	a5,0x12
   108c8:	08c57643          	fmadd.s	fa2,fa0,fa2,ft1
   108cc:	0f07a087          	flw	ft1,240(a5) # 120f0 <__DATA_BEGIN__+0x2c>
   108d0:	08c57543          	fmadd.s	fa0,fa0,fa2,ft1
   108d4:	10a57153          	fmul.s	ft2,fa0,fa0
   108d8:	dbdff06f          	j	10694 <_ZL11path_tracerRK10GlobalData.constprop.0+0x5c4>
   108dc:	000127b7          	lui	a5,0x12
   108e0:	0c87a787          	flw	fa5,200(a5) # 120c8 <__DATA_BEGIN__+0x4>
   108e4:	000127b7          	lui	a5,0x12
   108e8:	00c12707          	flw	fa4,12(sp)
   108ec:	90f47943          	fmadd.s	fs2,fs0,fa5,fs2
   108f0:	1007a787          	flw	fa5,256(a5) # 12100 <__DATA_BEGIN__+0x3c>
   108f4:	000127b7          	lui	a5,0x12
   108f8:	70f477c3          	fmadd.s	fa5,fs0,fa5,fa4
   108fc:	01012707          	flw	fa4,16(sp)
   10900:	00f12627          	fsw	fa5,12(sp)
   10904:	0dc7a787          	flw	fa5,220(a5) # 120dc <__DATA_BEGIN__+0x18>
   10908:	70f477c3          	fmadd.s	fa5,fs0,fa5,fa4
   1090c:	00f12827          	fsw	fa5,16(sp)
   10910:	001b8b9b          	addw	s7,s7,1
   10914:	957c9ee3          	bne	s9,s7,10270 <_ZL11path_tracerRK10GlobalData.constprop.0+0x1a0>
   10918:	0c492607          	flw	fa2,196(s2)
   1091c:	d01cf6d3          	fcvt.s.wu	fa3,s9
   10920:	00c12787          	flw	fa5,12(sp)
   10924:	f0000053          	fmv.w.x	ft0,zero
   10928:	18d676d3          	fdiv.s	fa3,fa2,fa3
   1092c:	000127b7          	lui	a5,0x12
   10930:	1047a507          	flw	fa0,260(a5) # 12104 <__DATA_BEGIN__+0x40>
   10934:	000127b7          	lui	a5,0x12
   10938:	0c87a587          	flw	fa1,200(a5) # 120c8 <__DATA_BEGIN__+0x4>
   1093c:	10d7f753          	fmul.s	fa4,fa5,fa3
   10940:	01012787          	flw	fa5,16(sp)
   10944:	10d97953          	fmul.s	fs2,fs2,fa3
   10948:	10d7f7d3          	fmul.s	fa5,fa5,fa3
   1094c:	28071753          	fmax.s	fa4,fa4,ft0
   10950:	28091953          	fmax.s	fs2,fs2,ft0
   10954:	28c70753          	fmin.s	fa4,fa4,fa2
   10958:	280797d3          	fmax.s	fa5,fa5,ft0
   1095c:	28c90953          	fmin.s	fs2,fs2,fa2
   10960:	58a77743          	fmadd.s	fa4,fa4,fa0,fa1
   10964:	28c787d3          	fmin.s	fa5,fa5,fa2
   10968:	58a97943          	fmadd.s	fs2,fs2,fa0,fa1
   1096c:	58a7f7c3          	fmadd.s	fa5,fa5,fa0,fa1
   10970:	c01717d3          	fcvt.wu.s	a5,fa4,rtz
   10974:	c01916d3          	fcvt.wu.s	a3,fs2,rtz
   10978:	0087979b          	sllw	a5,a5,0x8
   1097c:	c0179753          	fcvt.wu.s	a4,fa5,rtz
   10980:	0107171b          	sllw	a4,a4,0x10
   10984:	00e7e7b3          	or	a5,a5,a4
   10988:	00d7e7b3          	or	a5,a5,a3
   1098c:	ff000737          	lui	a4,0xff000
   10990:	00e7e7b3          	or	a5,a5,a4
   10994:	0007879b          	sext.w	a5,a5
   10998:	03813683          	ld	a3,56(sp)
   1099c:	02069713          	sll	a4,a3,0x20
   109a0:	01e75693          	srl	a3,a4,0x1e
   109a4:	11003703          	ld	a4,272(zero) # 110 <main-0xffa0>
   109a8:	00d70733          	add	a4,a4,a3
   109ac:	00f72023          	sw	a5,0(a4) # ffffffffff000000 <__global_pointer$+0xfffffffffefed73c>
   109b0:	0000070b          	fchthrd	a4
   109b4:	10802783          	lw	a5,264(zero) # 108 <main-0xffa8>
   109b8:	0007071b          	sext.w	a4,a4
   109bc:	02e13c23          	sd	a4,56(sp)
   109c0:	f8f76c63          	bltu	a4,a5,10158 <_ZL11path_tracerRK10GlobalData.constprop.0+0x88>
   109c4:	14813083          	ld	ra,328(sp)
   109c8:	14013403          	ld	s0,320(sp)
   109cc:	13813483          	ld	s1,312(sp)
   109d0:	13013903          	ld	s2,304(sp)
   109d4:	12813983          	ld	s3,296(sp)
   109d8:	12013a03          	ld	s4,288(sp)
   109dc:	11813a83          	ld	s5,280(sp)
   109e0:	11013b03          	ld	s6,272(sp)
   109e4:	10813b83          	ld	s7,264(sp)
   109e8:	10013c03          	ld	s8,256(sp)
   109ec:	0f813c83          	ld	s9,248(sp)
   109f0:	0f013d03          	ld	s10,240(sp)
   109f4:	0e813d83          	ld	s11,232(sp)
   109f8:	0dc12407          	flw	fs0,220(sp)
   109fc:	0d812487          	flw	fs1,216(sp)
   10a00:	0d412907          	flw	fs2,212(sp)
   10a04:	0d012987          	flw	fs3,208(sp)
   10a08:	0cc12a07          	flw	fs4,204(sp)
   10a0c:	0c812a87          	flw	fs5,200(sp)
   10a10:	0c412b07          	flw	fs6,196(sp)
   10a14:	0c012b87          	flw	fs7,192(sp)
   10a18:	0bc12c07          	flw	fs8,188(sp)
   10a1c:	0b812c87          	flw	fs9,184(sp)
   10a20:	0b412d07          	flw	fs10,180(sp)
   10a24:	0b012d87          	flw	fs11,176(sp)
   10a28:	15010113          	add	sp,sp,336
   10a2c:	00008067          	ret
   10a30:	ff0007b7          	lui	a5,0xff000
   10a34:	f65ff06f          	j	10998 <_ZL11path_tracerRK10GlobalData.constprop.0+0x8c8>

0000000000010a38 <_Z9intersectRK12MeshPointersRK3RayR3Hit>:
   10a38:	c9010113          	add	sp,sp,-880
   10a3c:	000127b7          	lui	a5,0x12
   10a40:	0c47a187          	flw	ft3,196(a5) # 120c4 <__DATA_BEGIN__>
   10a44:	35212227          	fsw	fs2,836(sp)
   10a48:	33412e27          	fsw	fs4,828(sp)
   10a4c:	0105a907          	flw	fs2,16(a1) # 3f800010 <__global_pointer$+0x3f7ed74c>
   10a50:	0145aa07          	flw	fs4,20(a1)
   10a54:	35312027          	fsw	fs3,832(sp)
   10a58:	1921f153          	fdiv.s	ft2,ft3,fs2
   10a5c:	0185a987          	flw	fs3,24(a1)
   10a60:	00053803          	ld	a6,0(a0)
   10a64:	0005ae07          	flw	ft8,0(a1)
   10a68:	0045ae87          	flw	ft9,4(a1)
   10a6c:	00082707          	flw	fa4,0(a6)
   10a70:	00482607          	flw	fa2,4(a6)
   10a74:	00c82087          	flw	ft1,12(a6)
   10a78:	01082007          	flw	ft0,16(a6)
   10a7c:	09c77753          	fsub.s	fa4,fa4,ft8
   10a80:	09d67653          	fsub.s	fa2,fa2,ft9
   10a84:	09c0f0d3          	fsub.s	ft1,ft1,ft8
   10a88:	09d07053          	fsub.s	ft0,ft0,ft9
   10a8c:	0085af07          	flw	ft10,8(a1)
   10a90:	01482587          	flw	fa1,20(a6)
   10a94:	00882687          	flw	fa3,8(a6)
   10a98:	00c5a207          	flw	ft4,12(a1)
   10a9c:	09e5f553          	fsub.s	fa0,fa1,ft10
   10aa0:	09e6f6d3          	fsub.s	fa3,fa3,ft10
   10aa4:	36813423          	sd	s0,872(sp)
   10aa8:	1941ffd3          	fdiv.s	ft11,ft3,fs4
   10aac:	1020f0d3          	fmul.s	ft1,ft1,ft2
   10ab0:	10277753          	fmul.s	fa4,fa4,ft2
   10ab4:	36913023          	sd	s1,864(sp)
   10ab8:	35213c23          	sd	s2,856(sp)
   10abc:	35313823          	sd	s3,848(sp)
   10ac0:	34812627          	fsw	fs0,844(sp)
   10ac4:	281705d3          	fmin.s	fa1,fa4,ft1
   10ac8:	28171753          	fmax.s	fa4,fa4,ft1
   10acc:	34912427          	fsw	fs1,840(sp)
   10ad0:	33512c27          	fsw	fs5,824(sp)
   10ad4:	33612a27          	fsw	fs6,820(sp)
   10ad8:	33712827          	fsw	fs7,816(sp)
   10adc:	33812627          	fsw	fs8,812(sp)
   10ae0:	33912427          	fsw	fs9,808(sp)
   10ae4:	33a12227          	fsw	fs10,804(sp)
   10ae8:	33b12027          	fsw	fs11,800(sp)
   10aec:	00412827          	fsw	ft4,16(sp)
   10af0:	01c5a787          	flw	fa5,28(a1)
   10af4:	00050e13          	mv	t3,a0
   10af8:	1931f8d3          	fdiv.s	fa7,ft3,fs3
   10afc:	11f67653          	fmul.s	fa2,fa2,ft11
   10b00:	11f07053          	fmul.s	ft0,ft0,ft11
   10b04:	280600d3          	fmin.s	ft1,fa2,ft0
   10b08:	28061653          	fmax.s	fa2,fa2,ft0
   10b0c:	281595d3          	fmax.s	fa1,fa1,ft1
   10b10:	28c70753          	fmin.s	fa4,fa4,fa2
   10b14:	28459653          	fmax.s	fa2,fa1,ft4
   10b18:	28f70753          	fmin.s	fa4,fa4,fa5
   10b1c:	1116f6d3          	fmul.s	fa3,fa3,fa7
   10b20:	111575d3          	fmul.s	fa1,fa0,fa7
   10b24:	28b68553          	fmin.s	fa0,fa3,fa1
   10b28:	28b696d3          	fmax.s	fa3,fa3,fa1
   10b2c:	28a61653          	fmax.s	fa2,fa2,fa0
   10b30:	28d70753          	fmin.s	fa4,fa4,fa3
   10b34:	a0c717d3          	flt.s	a5,fa4,fa2
   10b38:	00079463          	bnez	a5,10b40 <_Z9intersectRK12MeshPointersRK3RayR3Hit+0x108>
   10b3c:	20c607d3          	fmv.s	fa5,fa2
   10b40:	01882783          	lw	a5,24(a6)
   10b44:	ff900313          	li	t1,-7
   10b48:	f0000d53          	fmv.w.x	fs10,zero
   10b4c:	214a0cd3          	fmv.s	fs9,fs4
   10b50:	02f12223          	sw	a5,36(sp)
   10b54:	02131313          	sll	t1,t1,0x21
   10b58:	00000793          	li	a5,0
   10b5c:	fff00e93          	li	t4,-1
   10b60:	02f12027          	fsw	fa5,32(sp)
   10b64:	00000513          	li	a0,0
   10b68:	fff30313          	add	t1,t1,-1
   10b6c:	01cede93          	srl	t4,t4,0x1c
   10b70:	02080f13          	add	t5,a6,32
   10b74:	00078893          	mv	a7,a5
   10b78:	0008879b          	sext.w	a5,a7
   10b7c:	02079693          	sll	a3,a5,0x20
   10b80:	01d6d713          	srl	a4,a3,0x1d
   10b84:	02070693          	add	a3,a4,32
   10b88:	00062587          	flw	fa1,0(a2)
   10b8c:	002686b3          	add	a3,a3,sp
   10b90:	0046af83          	lw	t6,4(a3)
   10b94:	a0f586d3          	fle.s	a3,fa1,fa5
   10b98:	30070713          	add	a4,a4,768
   10b9c:	02010893          	add	a7,sp,32
   10ba0:	001fd49b          	srlw	s1,t6,0x1
   10ba4:	01170733          	add	a4,a4,a7
   10ba8:	004fd39b          	srlw	t2,t6,0x4
   10bac:	d0073703          	ld	a4,-768(a4)
   10bb0:	0074f493          	and	s1,s1,7
   10bb4:	004fdf9b          	srlw	t6,t6,0x4
   10bb8:	3a069663          	bnez	a3,10f64 <_Z9intersectRK12MeshPointersRK3RayR3Hit+0x52c>
   10bbc:	02149693          	sll	a3,s1,0x21
   10bc0:	00677733          	and	a4,a4,t1
   10bc4:	00d76733          	or	a4,a4,a3
   10bc8:	01d77733          	and	a4,a4,t4
   10bcc:	02075713          	srl	a4,a4,0x20
   10bd0:	02039693          	sll	a3,t2,0x20
   10bd4:	00177713          	and	a4,a4,1
   10bd8:	0206d693          	srl	a3,a3,0x20
   10bdc:	24070663          	beqz	a4,10e28 <_Z9intersectRK12MeshPointersRK3RayR3Hit+0x3f0>
   10be0:	008e3883          	ld	a7,8(t3)
   10be4:	00169713          	sll	a4,a3,0x1
   10be8:	00d70733          	add	a4,a4,a3
   10bec:	00271713          	sll	a4,a4,0x2
   10bf0:	010e3283          	ld	t0,16(t3)
   10bf4:	00e888b3          	add	a7,a7,a4
   10bf8:	009384bb          	addw	s1,t2,s1
   10bfc:	00212a27          	fsw	ft2,20(sp)
   10c00:	01f12c27          	fsw	ft11,24(sp)
   10c04:	01112e27          	fsw	fa7,28(sp)
   10c08:	0080006f          	j	10c10 <_Z9intersectRK12MeshPointersRK3RayR3Hit+0x1d8>
   10c0c:	00070f93          	mv	t6,a4
   10c10:	0088e383          	lwu	t2,8(a7)
   10c14:	0008e903          	lwu	s2,0(a7)
   10c18:	0048e403          	lwu	s0,4(a7)
   10c1c:	00139693          	sll	a3,t2,0x1
   10c20:	00191993          	sll	s3,s2,0x1
   10c24:	00141713          	sll	a4,s0,0x1
   10c28:	007686b3          	add	a3,a3,t2
   10c2c:	01298933          	add	s2,s3,s2
   10c30:	00870733          	add	a4,a4,s0
   10c34:	00291393          	sll	t2,s2,0x2
   10c38:	00271713          	sll	a4,a4,0x2
   10c3c:	00269693          	sll	a3,a3,0x2
   10c40:	00e28733          	add	a4,t0,a4
   10c44:	007283b3          	add	t2,t0,t2
   10c48:	00d286b3          	add	a3,t0,a3
   10c4c:	0086af87          	flw	ft11,8(a3)
   10c50:	0003a507          	flw	fa0,0(t2)
   10c54:	0083a687          	flw	fa3,8(t2)
   10c58:	00072287          	flw	ft5,0(a4)
   10c5c:	0006a087          	flw	ft1,0(a3)
   10c60:	08dff853          	fsub.s	fa6,ft11,fa3
   10c64:	08a2f653          	fsub.s	fa2,ft5,fa0
   10c68:	0046ab87          	flw	fs7,4(a3)
   10c6c:	0043a587          	flw	fa1,4(t2)
   10c70:	00872707          	flw	fa4,8(a4)
   10c74:	08a0f153          	fsub.s	ft2,ft1,fa0
   10c78:	0850fa53          	fsub.s	fs4,ft1,ft5
   10c7c:	08157c53          	fsub.s	fs8,fa0,ft1
   10c80:	09c0f0d3          	fsub.s	ft1,ft1,ft8
   10c84:	08d77053          	fsub.s	ft0,fa4,fa3
   10c88:	08bbfad3          	fsub.s	fs5,fs7,fa1
   10c8c:	11067453          	fmul.s	fs0,fa2,fa6
   10c90:	00472787          	flw	fa5,4(a4)
   10c94:	09e778d3          	fsub.s	fa7,fa4,ft10
   10c98:	00112427          	fsw	ft1,8(sp)
   10c9c:	09dbf0d3          	fsub.s	ft1,fs7,ft9
   10ca0:	08b7f253          	fsub.s	ft4,fa5,fa1
   10ca4:	40207447          	fmsub.s	fs0,ft0,ft2,fs0
   10ca8:	11507353          	fmul.s	ft6,ft0,fs5
   10cac:	09eff1d3          	fsub.s	ft3,ft11,ft10
   10cb0:	09e6f3d3          	fsub.s	ft7,fa3,ft10
   10cb4:	08eff753          	fsub.s	fa4,ft11,fa4
   10cb8:	09d7f4d3          	fsub.s	fs1,fa5,ft9
   10cbc:	09f6f6d3          	fsub.s	fa3,fa3,ft11
   10cc0:	111a7b53          	fmul.s	fs6,fs4,fa7
   10cc4:	09c2f2d3          	fsub.s	ft5,ft5,ft8
   10cc8:	00112227          	fsw	ft1,4(sp)
   10ccc:	31027847          	fmsub.s	fa6,ft4,fa6,ft6
   10cd0:	00812627          	fsw	fs0,12(sp)
   10cd4:	108cf353          	fmul.s	ft6,fs9,fs0
   10cd8:	00412407          	flw	fs0,4(sp)
   10cdc:	09d5ffd3          	fsub.s	ft11,fa1,ft9
   10ce0:	103c7dd3          	fmul.s	fs11,fs8,ft3
   10ce4:	107670d3          	fmul.s	ft1,fa2,ft7
   10ce8:	09c57553          	fsub.s	fa0,fa0,ft8
   10cec:	08fbf7d3          	fsub.s	fa5,fs7,fa5
   10cf0:	0975f5d3          	fsub.s	fa1,fa1,fs7
   10cf4:	10227153          	fmul.s	ft2,ft4,ft2
   10cf8:	10977bd3          	fmul.s	fs7,fa4,fs1
   10cfc:	b0577747          	fmsub.s	fa4,fa4,ft5,fs6
   10d00:	1086fb53          	fmul.s	fs6,fa3,fs0
   10d04:	00812407          	flw	fs0,8(sp)
   10d08:	11567147          	fmsub.s	ft2,fa2,fs5,ft2
   10d0c:	31097343          	fmadd.s	ft6,fs2,fa6,ft6
   10d10:	d886f6c7          	fmsub.s	fa3,fa3,fs0,fs11
   10d14:	11f07dd3          	fmul.s	fs11,ft0,ft11
   10d18:	08a07047          	fmsub.s	ft0,ft0,fa0,ft1
   10d1c:	b917f8c7          	fmsub.s	fa7,fa5,fa7,fs7
   10d20:	b035f1c7          	fmsub.s	ft3,fa1,ft3,fs6
   10d24:	1057f7d3          	fmul.s	fa5,fa5,ft5
   10d28:	d8727dc7          	fmsub.s	fs11,ft4,ft7,fs11
   10d2c:	10ecf753          	fmul.s	fa4,fs9,fa4
   10d30:	1085f5d3          	fmul.s	fa1,fa1,fs0
   10d34:	10dcf6d3          	fmul.s	fa3,fs9,fa3
   10d38:	10a27253          	fmul.s	ft4,ft4,fa0
   10d3c:	100cf053          	fmul.s	ft0,fs9,ft0
   10d40:	3029f343          	fmadd.s	ft6,fs3,ft2,ft6
   10d44:	00412087          	flw	ft1,4(sp)
   10d48:	789a77c7          	fmsub.s	fa5,fs4,fs1,fa5
   10d4c:	71197743          	fmadd.s	fa4,fs2,fa7,fa4
   10d50:	581c75c7          	fmsub.s	fa1,fs8,ft1,fa1
   10d54:	683971c3          	fmadd.s	ft3,fs2,ft3,fa3
   10d58:	21f67647          	fmsub.s	fa2,fa2,ft11,ft4
   10d5c:	01b97dc3          	fmadd.s	fs11,fs2,fs11,ft0
   10d60:	a06d1753          	flt.s	a4,fs10,ft6
   10d64:	70f9f7c3          	fmadd.s	fa5,fs3,fa5,fa4
   10d68:	18b9f1c3          	fmadd.s	ft3,fs3,fa1,ft3
   10d6c:	d8c9f643          	fmadd.s	fa2,fs3,fa2,fs11
   10d70:	00070863          	beqz	a4,10d80 <_Z9intersectRK12MeshPointersRK3RayR3Hit+0x348>
   10d74:	20f797d3          	fneg.s	fa5,fa5
   10d78:	203191d3          	fneg.s	ft3,ft3
   10d7c:	20c61653          	fneg.s	fa2,fa2
   10d80:	a1a79753          	flt.s	a4,fa5,fs10
   10d84:	06071263          	bnez	a4,10de8 <_Z9intersectRK12MeshPointersRK3RayR3Hit+0x3b0>
   10d88:	a1a19753          	flt.s	a4,ft3,fs10
   10d8c:	04071e63          	bnez	a4,10de8 <_Z9intersectRK12MeshPointersRK3RayR3Hit+0x3b0>
   10d90:	a1a61753          	flt.s	a4,fa2,fs10
   10d94:	04071a63          	bnez	a4,10de8 <_Z9intersectRK12MeshPointersRK3RayR3Hit+0x3b0>
   10d98:	00c12707          	flw	fa4,12(sp)
   10d9c:	10efffd3          	fmul.s	ft11,ft11,fa4
   10da0:	01012707          	flw	fa4,16(sp)
   10da4:	f9057543          	fmadd.s	fa0,fa0,fa6,ft11
   10da8:	5023f3c3          	fmadd.s	ft7,ft7,ft2,fa0
   10dac:	1863f3d3          	fdiv.s	ft7,ft7,ft6
   10db0:	a0e39753          	flt.s	a4,ft7,fa4
   10db4:	02071a63          	bnez	a4,10de8 <_Z9intersectRK12MeshPointersRK3RayR3Hit+0x3b0>
   10db8:	00062707          	flw	fa4,0(a2)
   10dbc:	a0771753          	flt.s	a4,fa4,ft7
   10dc0:	02071463          	bnez	a4,10de8 <_Z9intersectRK12MeshPointersRK3RayR3Hit+0x3b0>
   10dc4:	0037f753          	fadd.s	fa4,fa5,ft3
   10dc8:	00762027          	fsw	ft7,0(a2)
   10dcc:	01f62623          	sw	t6,12(a2)
   10dd0:	00100513          	li	a0,1
   10dd4:	00c77753          	fadd.s	fa4,fa4,fa2
   10dd8:	18e7f7d3          	fdiv.s	fa5,fa5,fa4
   10ddc:	18e1f1d3          	fdiv.s	ft3,ft3,fa4
   10de0:	00f62227          	fsw	fa5,4(a2)
   10de4:	00362427          	fsw	ft3,8(a2)
   10de8:	00c88893          	add	a7,a7,12
   10dec:	001f871b          	addw	a4,t6,1
   10df0:	e1f49ee3          	bne	s1,t6,10c0c <_Z9intersectRK12MeshPointersRK3RayR3Hit+0x1d4>
   10df4:	01412107          	flw	ft2,20(sp)
   10df8:	01812f87          	flw	ft11,24(sp)
   10dfc:	01c12887          	flw	fa7,28(sp)
   10e00:	16078263          	beqz	a5,10f64 <_Z9intersectRK12MeshPointersRK3RayR3Hit+0x52c>
   10e04:	fff7879b          	addw	a5,a5,-1
   10e08:	02079693          	sll	a3,a5,0x20
   10e0c:	01d6d713          	srl	a4,a3,0x1d
   10e10:	00078893          	mv	a7,a5
   10e14:	30070793          	add	a5,a4,768
   10e18:	02010713          	add	a4,sp,32
   10e1c:	00e78733          	add	a4,a5,a4
   10e20:	d0072787          	flw	fa5,-768(a4)
   10e24:	d55ff06f          	j	10b78 <_Z9intersectRK12MeshPointersRK3RayR3Hit+0x140>
   10e28:	00d484b3          	add	s1,s1,a3
   10e2c:	00549493          	sll	s1,s1,0x5
   10e30:	00569693          	sll	a3,a3,0x5
   10e34:	00c5a007          	flw	ft0,12(a1)
   10e38:	01c5a507          	flw	fa0,28(a1)
   10e3c:	00d806b3          	add	a3,a6,a3
   10e40:	01e484b3          	add	s1,s1,t5
   10e44:	00c0006f          	j	10e50 <_Z9intersectRK12MeshPointersRK3RayR3Hit+0x418>
   10e48:	02068693          	add	a3,a3,32
   10e4c:	fad48ae3          	beq	s1,a3,10e00 <_Z9intersectRK12MeshPointersRK3RayR3Hit+0x3c8>
   10e50:	0006a787          	flw	fa5,0(a3)
   10e54:	0046a607          	flw	fa2,4(a3)
   10e58:	00c6a207          	flw	ft4,12(a3)
   10e5c:	0106a187          	flw	ft3,16(a3)
   10e60:	09c7f7d3          	fsub.s	fa5,fa5,ft8
   10e64:	09d67653          	fsub.s	fa2,fa2,ft9
   10e68:	09c27253          	fsub.s	ft4,ft4,ft8
   10e6c:	09d1f1d3          	fsub.s	ft3,ft3,ft9
   10e70:	0086a687          	flw	fa3,8(a3)
   10e74:	0146a087          	flw	ft1,20(a3)
   10e78:	1027f7d3          	fmul.s	fa5,fa5,ft2
   10e7c:	11f67653          	fmul.s	fa2,fa2,ft11
   10e80:	10227253          	fmul.s	ft4,ft4,ft2
   10e84:	11f1f1d3          	fmul.s	ft3,ft3,ft11
   10e88:	09e6f6d3          	fsub.s	fa3,fa3,ft10
   10e8c:	09e0f0d3          	fsub.s	ft1,ft1,ft10
   10e90:	28478753          	fmin.s	fa4,fa5,ft4
   10e94:	283602d3          	fmin.s	ft5,fa2,ft3
   10e98:	284797d3          	fmax.s	fa5,fa5,ft4
   10e9c:	28361653          	fmax.s	fa2,fa2,ft3
   10ea0:	1116f6d3          	fmul.s	fa3,fa3,fa7
   10ea4:	1110f0d3          	fmul.s	ft1,ft1,fa7
   10ea8:	28c787d3          	fmin.s	fa5,fa5,fa2
   10eac:	28571753          	fmax.s	fa4,fa4,ft5
   10eb0:	28a787d3          	fmin.s	fa5,fa5,fa0
   10eb4:	28168653          	fmin.s	fa2,fa3,ft1
   10eb8:	28071753          	fmax.s	fa4,fa4,ft0
   10ebc:	281696d3          	fmax.s	fa3,fa3,ft1
   10ec0:	28c71753          	fmax.s	fa4,fa4,fa2
   10ec4:	28d787d3          	fmin.s	fa5,fa5,fa3
   10ec8:	a0e79753          	flt.s	a4,fa5,fa4
   10ecc:	00070463          	beqz	a4,10ed4 <_Z9intersectRK12MeshPointersRK3RayR3Hit+0x49c>
   10ed0:	20a50753          	fmv.s	fa4,fa0
   10ed4:	a0b71753          	flt.s	a4,fa4,fa1
   10ed8:	f60708e3          	beqz	a4,10e48 <_Z9intersectRK12MeshPointersRK3RayR3Hit+0x410>
   10edc:	0017891b          	addw	s2,a5,1
   10ee0:	06078e63          	beqz	a5,10f5c <_Z9intersectRK12MeshPointersRK3RayR3Hit+0x524>
   10ee4:	fff7889b          	addw	a7,a5,-1
   10ee8:	02089713          	sll	a4,a7,0x20
   10eec:	01d75393          	srl	t2,a4,0x1d
   10ef0:	02038713          	add	a4,t2,32
   10ef4:	02079f93          	sll	t6,a5,0x20
   10ef8:	00270733          	add	a4,a4,sp
   10efc:	01dfd413          	srl	s0,t6,0x1d
   10f00:	0180006f          	j	10f18 <_Z9intersectRK12MeshPointersRK3RayR3Hit+0x4e0>
   10f04:	00073f83          	ld	t6,0(a4)
   10f08:	fff7889b          	addw	a7,a5,-1
   10f0c:	ff870713          	add	a4,a4,-8
   10f10:	01f9b023          	sd	t6,0(s3)
   10f14:	04078463          	beqz	a5,10f5c <_Z9intersectRK12MeshPointersRK3RayR3Hit+0x524>
   10f18:	00072787          	flw	fa5,0(a4)
   10f1c:	40770fb3          	sub	t6,a4,t2
   10f20:	008f89b3          	add	s3,t6,s0
   10f24:	a0f70fd3          	fle.s	t6,fa4,fa5
   10f28:	0007829b          	sext.w	t0,a5
   10f2c:	0008879b          	sext.w	a5,a7
   10f30:	fc0f8ae3          	beqz	t6,10f04 <_Z9intersectRK12MeshPointersRK3RayR3Hit+0x4cc>
   10f34:	02029713          	sll	a4,t0,0x20
   10f38:	0186a783          	lw	a5,24(a3)
   10f3c:	01d75293          	srl	t0,a4,0x1d
   10f40:	30028713          	add	a4,t0,768
   10f44:	02010893          	add	a7,sp,32
   10f48:	011702b3          	add	t0,a4,a7
   10f4c:	d0f2a223          	sw	a5,-764(t0)
   10f50:	d0e2a027          	fsw	fa4,-768(t0)
   10f54:	00090793          	mv	a5,s2
   10f58:	ef1ff06f          	j	10e48 <_Z9intersectRK12MeshPointersRK3RayR3Hit+0x410>
   10f5c:	00000293          	li	t0,0
   10f60:	fd5ff06f          	j	10f34 <_Z9intersectRK12MeshPointersRK3RayR3Hit+0x4fc>
   10f64:	36813403          	ld	s0,872(sp)
   10f68:	36013483          	ld	s1,864(sp)
   10f6c:	35813903          	ld	s2,856(sp)
   10f70:	35013983          	ld	s3,848(sp)
   10f74:	34c12407          	flw	fs0,844(sp)
   10f78:	34812487          	flw	fs1,840(sp)
   10f7c:	34412907          	flw	fs2,836(sp)
   10f80:	34012987          	flw	fs3,832(sp)
   10f84:	33c12a07          	flw	fs4,828(sp)
   10f88:	33812a87          	flw	fs5,824(sp)
   10f8c:	33412b07          	flw	fs6,820(sp)
   10f90:	33012b87          	flw	fs7,816(sp)
   10f94:	32c12c07          	flw	fs8,812(sp)
   10f98:	32812c87          	flw	fs9,808(sp)
   10f9c:	32412d07          	flw	fs10,804(sp)
   10fa0:	32012d87          	flw	fs11,800(sp)
   10fa4:	37010113          	add	sp,sp,880
   10fa8:	00008067          	ret
