
./bin/riscv/path-tracer:     file format elf64-littleriscv
./bin/riscv/path-tracer
architecture: riscv:rv64, flags 0x00000112:
EXEC_P, HAS_SYMS, D_PAGED
start address 0x0000000000010078

Program Header:
    LOAD off    0x0000000000000000 vaddr 0x0000000000010000 paddr 0x0000000000010000 align 2**12
         filesz 0x0000000000001718 memsz 0x0000000000001718 flags r-x

Sections:
Idx Name          Size      VMA               LMA               File off  Algn
  0 .text         000005d0  0000000000010078  0000000000010078  00000078  2**2
                  CONTENTS, ALLOC, LOAD, READONLY, CODE
  1 .eh_frame     000000b4  0000000000010648  0000000000010648  00000648  2**3
                  CONTENTS, ALLOC, LOAD, READONLY, DATA
  2 .sdata        0000001c  00000000000116fc  00000000000116fc  000016fc  2**2
                  CONTENTS, ALLOC, LOAD, READONLY, DATA
  3 .comment      0000001b  0000000000000000  0000000000000000  00001718  2**0
                  CONTENTS, READONLY
  4 .riscv.attributes 0000002b  0000000000000000  0000000000000000  00001733  2**0
                  CONTENTS, READONLY
SYMBOL TABLE:
0000000000010078 l    d  .text	0000000000000000 .text
0000000000010648 l    d  .eh_frame	0000000000000000 .eh_frame
00000000000116fc l    d  .sdata	0000000000000000 .sdata
0000000000000000 l    d  .comment	0000000000000000 .comment
0000000000000000 l    d  .riscv.attributes	0000000000000000 .riscv.attributes
0000000000000000 l    df *ABS*	0000000000000000 path-tracer.cpp
0000000000010298 l     F .text	0000000000000328 _Z17intersect_bucketsPvPK7TreeletP3Hit.isra.0
0000000000011efc g       *ABS*	0000000000000000 __global_pointer$
00000000000105e8 g     F .text	0000000000000028 _Z6_sbrayRK9BucketRayjPKv
00000000000116fc g       .sdata	0000000000000000 __SDATA_BEGIN__
00000000000105c0 g     F .text	0000000000000028 _Z6_lbrayPKvRj
0000000000011718 g       .sdata	0000000000000000 __BSS_END__
0000000000011718 g       .sdata	0000000000000000 __bss_start
0000000000010078 g     F .text	0000000000000220 main
00000000000116fc g       .sdata	0000000000000000 __DATA_BEGIN__
0000000000011718 g       .sdata	0000000000000000 _edata
0000000000011718 g       .sdata	0000000000000000 _end
0000000000010610 g     F .text	0000000000000038 _Z6_cshitRK3HitPS_



Disassembly of section .text:

0000000000010078 <main>:
   10078:	00100713          	li	a4,1
   1007c:	08000693          	li	a3,128
   10080:	00e6a7af          	amoadd.w	a5,a4,(a3)
   10084:	10802703          	lw	a4,264(zero) # 108 <main-0xff70>
   10088:	0007879b          	sext.w	a5,a5
   1008c:	0ee7fc63          	bgeu	a5,a4,10184 <main+0x10c>
   10090:	00011737          	lui	a4,0x11
   10094:	70872507          	flw	fa0,1800(a4) # 11708 <__DATA_BEGIN__+0xc>
   10098:	00011737          	lui	a4,0x11
   1009c:	70c72587          	flw	fa1,1804(a4) # 1170c <__DATA_BEGIN__+0x10>
   100a0:	00011737          	lui	a4,0x11
   100a4:	70072807          	flw	fa6,1792(a4) # 11700 <__DATA_BEGIN__+0x4>
   100a8:	00100613          	li	a2,1
   100ac:	10002703          	lw	a4,256(zero) # 100 <main-0xff78>
   100b0:	13002707          	flw	fa4,304(zero) # 130 <main-0xff48>
   100b4:	12c02007          	flw	ft0,300(zero) # 12c <main-0xff4c>
   100b8:	02e7d5bb          	divuw	a1,a5,a4
   100bc:	14002187          	flw	ft3,320(zero) # 140 <main-0xff38>
   100c0:	14402207          	flw	ft4,324(zero) # 144 <main-0xff34>
   100c4:	00078693          	mv	a3,a5
   100c8:	02e7f73b          	remuw	a4,a5,a4
   100cc:	d015f7d3          	fcvt.s.wu	fa5,a1
   100d0:	00a7f7d3          	fadd.s	fa5,fa5,fa0
   100d4:	58e7f7c3          	fmadd.s	fa5,fa5,fa4,fa1
   100d8:	15002707          	flw	fa4,336(zero) # 150 <main-0xff28>
   100dc:	10e7f653          	fmul.s	fa2,fa5,fa4
   100e0:	14c02707          	flw	fa4,332(zero) # 14c <main-0xff2c>
   100e4:	10e7f6d3          	fmul.s	fa3,fa5,fa4
   100e8:	15402707          	flw	fa4,340(zero) # 154 <main-0xff24>
   100ec:	10e7f753          	fmul.s	fa4,fa5,fa4
   100f0:	d01777d3          	fcvt.s.wu	fa5,a4
   100f4:	00a7f7d3          	fadd.s	fa5,fa5,fa0
   100f8:	5807f7c3          	fmadd.s	fa5,fa5,ft0,fa1
   100fc:	6837f1c3          	fmadd.s	ft3,fa5,ft3,fa3
   10100:	14802687          	flw	fa3,328(zero) # 148 <main-0xff30>
   10104:	6047f243          	fmadd.s	ft4,fa5,ft4,fa2
   10108:	70d7f7c3          	fmadd.s	fa5,fa5,fa3,fa4
   1010c:	15c02707          	flw	fa4,348(zero) # 15c <main-0xff1c>
   10110:	08e27253          	fsub.s	ft4,ft4,fa4
   10114:	15802707          	flw	fa4,344(zero) # 158 <main-0xff20>
   10118:	08e1f1d3          	fsub.s	ft3,ft3,fa4
   1011c:	104272d3          	fmul.s	ft5,ft4,ft4
   10120:	16002707          	flw	fa4,352(zero) # 160 <main-0xff18>
   10124:	08e7f7d3          	fsub.s	fa5,fa5,fa4
   10128:	2831f2c3          	fmadd.s	ft5,ft3,ft3,ft5
   1012c:	28f7f2c3          	fmadd.s	ft5,fa5,fa5,ft5
   10130:	5802f2d3          	fsqrt.s	ft5,ft5
   10134:	02079593          	slli	a1,a5,0x20
   10138:	18003783          	ld	a5,384(zero) # 180 <main-0xfef8>
   1013c:	01c5d713          	srli	a4,a1,0x1c
   10140:	1851f1d3          	fdiv.s	ft3,ft3,ft5
   10144:	00e787b3          	add	a5,a5,a4
   10148:	13402007          	flw	ft0,308(zero) # 134 <main-0xff44>
   1014c:	19003703          	ld	a4,400(zero) # 190 <main-0xfee8>
   10150:	13802087          	flw	ft1,312(zero) # 138 <main-0xff40>
   10154:	13c02107          	flw	ft2,316(zero) # 13c <main-0xff3c>
   10158:	f0068353          	fmv.w.x	ft6,a3
   1015c:	f00003d3          	fmv.w.x	ft7,zero
   10160:	0107a027          	fsw	fa6,0(a5)
   10164:	18527253          	fdiv.s	ft4,ft4,ft5
   10168:	1857f2d3          	fdiv.s	ft5,fa5,ft5
   1016c:	0007200b          	sbray	ft0,0(a4)
   10170:	08000713          	li	a4,128
   10174:	00c727af          	amoadd.w	a5,a2,(a4)
   10178:	10802703          	lw	a4,264(zero) # 108 <main-0xff70>
   1017c:	0007879b          	sext.w	a5,a5
   10180:	f2e7e6e3          	bltu	a5,a4,100ac <main+0x34>
   10184:	00100713          	li	a4,1
   10188:	08400693          	li	a3,132
   1018c:	00e6a7af          	amoadd.w	a5,a4,(a3)
   10190:	10802683          	lw	a3,264(zero) # 108 <main-0xff70>
   10194:	0007879b          	sext.w	a5,a5
   10198:	0ed7e263          	bltu	a5,a3,1027c <main+0x204>
   1019c:	08800693          	li	a3,136
   101a0:	00e6a7af          	amoadd.w	a5,a4,(a3)
   101a4:	10802703          	lw	a4,264(zero) # 108 <main-0xff70>
   101a8:	0007879b          	sext.w	a5,a5
   101ac:	0ce7f463          	bgeu	a5,a4,10274 <main+0x1fc>
   101b0:	00011737          	lui	a4,0x11
   101b4:	70472707          	flw	fa4,1796(a4) # 11704 <__DATA_BEGIN__+0x8>
   101b8:	00011737          	lui	a4,0x11
   101bc:	71072587          	flw	fa1,1808(a4) # 11710 <__DATA_BEGIN__+0x14>
   101c0:	00011737          	lui	a4,0x11
   101c4:	71472607          	flw	fa2,1812(a4) # 11714 <__DATA_BEGIN__+0x18>
   101c8:	00011737          	lui	a4,0x11
   101cc:	70872687          	flw	fa3,1800(a4) # 11708 <__DATA_BEGIN__+0xc>
   101d0:	fff00593          	li	a1,-1
   101d4:	ff000837          	lui	a6,0xff000
   101d8:	00100613          	li	a2,1
   101dc:	ff000537          	lui	a0,0xff000
   101e0:	0500006f          	j	10230 <main+0x1b8>
   101e4:	28e787d3          	fmin.s	fa5,fa5,fa4
   101e8:	11003703          	ld	a4,272(zero) # 110 <main-0xff68>
   101ec:	00279793          	slli	a5,a5,0x2
   101f0:	10b7f7d3          	fmul.s	fa5,fa5,fa1
   101f4:	00f70733          	add	a4,a4,a5
   101f8:	28e787d3          	fmin.s	fa5,fa5,fa4
   101fc:	68c7f7c3          	fmadd.s	fa5,fa5,fa2,fa3
   10200:	c01796d3          	fcvt.wu.s	a3,fa5,rtz
   10204:	0086979b          	slliw	a5,a3,0x8
   10208:	0106989b          	slliw	a7,a3,0x10
   1020c:	0117e7b3          	or	a5,a5,a7
   10210:	00d7e7b3          	or	a5,a5,a3
   10214:	00a7e7b3          	or	a5,a5,a0
   10218:	00f72023          	sw	a5,0(a4)
   1021c:	08800713          	li	a4,136
   10220:	00c727af          	amoadd.w	a5,a2,(a4)
   10224:	10802703          	lw	a4,264(zero) # 108 <main-0xff70>
   10228:	0007879b          	sext.w	a5,a5
   1022c:	04e7f463          	bgeu	a5,a4,10274 <main+0x1fc>
   10230:	18003703          	ld	a4,384(zero) # 180 <main-0xfef8>
   10234:	02079793          	slli	a5,a5,0x20
   10238:	0207d793          	srli	a5,a5,0x20
   1023c:	00479693          	slli	a3,a5,0x4
   10240:	00d70733          	add	a4,a4,a3
   10244:	00c72683          	lw	a3,12(a4)
   10248:	00072787          	flw	fa5,0(a4)
   1024c:	f8b69ce3          	bne	a3,a1,101e4 <main+0x16c>
   10250:	11003703          	ld	a4,272(zero) # 110 <main-0xff68>
   10254:	00279793          	slli	a5,a5,0x2
   10258:	00f707b3          	add	a5,a4,a5
   1025c:	0107a023          	sw	a6,0(a5)
   10260:	08800713          	li	a4,136
   10264:	00c727af          	amoadd.w	a5,a2,(a4)
   10268:	10802703          	lw	a4,264(zero) # 108 <main-0xff70>
   1026c:	0007879b          	sext.w	a5,a5
   10270:	fce7e0e3          	bltu	a5,a4,10230 <main+0x1b8>
   10274:	00000513          	li	a0,0
   10278:	00008067          	ret
   1027c:	18003603          	ld	a2,384(zero) # 180 <main-0xfef8>
   10280:	18803583          	ld	a1,392(zero) # 188 <main-0xfef0>
   10284:	19003503          	ld	a0,400(zero) # 190 <main-0xfee8>
   10288:	ff010113          	addi	sp,sp,-16
   1028c:	00113423          	sd	ra,8(sp)
   10290:	00000097          	auipc	ra,0x0
   10294:	008080e7          	jalr	8(ra) # 10298 <_Z17intersect_bucketsPvPK7TreeletP3Hit.isra.0>

0000000000010298 <_Z17intersect_bucketsPvPK7TreeletP3Hit.isra.0>:
   10298:	da010113          	addi	sp,sp,-608
   1029c:	000117b7          	lui	a5,0x11
   102a0:	23612227          	fsw	fs6,548(sp)
   102a4:	7047ab07          	flw	fs6,1796(a5) # 11704 <__DATA_BEGIN__+0x8>
   102a8:	000117b7          	lui	a5,0x11
   102ac:	7007ae87          	flw	ft9,1792(a5) # 11700 <__DATA_BEGIN__+0x4>
   102b0:	000117b7          	lui	a5,0x11
   102b4:	23712027          	fsw	fs7,544(sp)
   102b8:	6fc7ab87          	flw	fs7,1788(a5) # 116fc <__DATA_BEGIN__>
   102bc:	00700293          	li	t0,7
   102c0:	3ac4afb7          	lui	t6,0x3ac4a
   102c4:	24113c23          	sd	ra,600(sp)
   102c8:	00050813          	mv	a6,a0
   102cc:	24813823          	sd	s0,592(sp)
   102d0:	24913423          	sd	s1,584(sp)
   102d4:	22812e27          	fsw	fs0,572(sp)
   102d8:	22912c27          	fsw	fs1,568(sp)
   102dc:	23212a27          	fsw	fs2,564(sp)
   102e0:	23312827          	fsw	fs3,560(sp)
   102e4:	23412627          	fsw	fs4,556(sp)
   102e8:	23512427          	fsw	fs5,552(sp)
   102ec:	21812e27          	fsw	fs8,540(sp)
   102f0:	21912c27          	fsw	fs9,536(sp)
   102f4:	21a12a27          	fsw	fs10,532(sp)
   102f8:	00058393          	mv	t2,a1
   102fc:	00060093          	mv	ra,a2
   10300:	00000e93          	li	t4,0
   10304:	21010513          	addi	a0,sp,528
   10308:	02229293          	slli	t0,t0,0x22
   1030c:	ba6f8f93          	addi	t6,t6,-1114 # 3ac49ba6 <__global_pointer$+0x3ac37caa>
   10310:	fff00313          	li	t1,-1
   10314:	0008100b          	lbray	ft0,0(a6) # ffffffffff000000 <__global_pointer$+0xfffffffffefee104>
   10318:	183b7e53          	fdiv.s	ft8,fs6,ft3
   1031c:	e00387d3          	fmv.x.w	a5,ft7
   10320:	20318f53          	fmv.s	ft10,ft3
   10324:	20420fd3          	fmv.s	ft11,ft4
   10328:	02079713          	slli	a4,a5,0x20
   1032c:	20528ad3          	fmv.s	fs5,ft5
   10330:	e0030f53          	fmv.x.w	t5,ft6
   10334:	01075793          	srli	a5,a4,0x10
   10338:	00f385b3          	add	a1,t2,a5
   1033c:	11010793          	addi	a5,sp,272
   10340:	184b7a53          	fdiv.s	fs4,fs6,ft4
   10344:	185b7c53          	fdiv.s	fs8,fs6,ft5
   10348:	01d7a027          	fsw	ft9,0(a5)
   1034c:	00878793          	addi	a5,a5,8
   10350:	fea79ce3          	bne	a5,a0,10348 <_Z17intersect_bucketsPvPK7TreeletP3Hit.isra.0+0xb0>
   10354:	11013783          	ld	a5,272(sp)
   10358:	f00009d3          	fmv.w.x	fs3,zero
   1035c:	217b8753          	fmv.s	fa4,fs7
   10360:	0057f7b3          	and	a5,a5,t0
   10364:	21398853          	fmv.s	fa6,fs3
   10368:	21de87d3          	fmv.s	fa5,ft9
   1036c:	01f7e7b3          	or	a5,a5,t6
   10370:	10f13823          	sd	a5,272(sp)
   10374:	00000893          	li	a7,0
   10378:	00000e13          	li	t3,0
   1037c:	00000693          	li	a3,0
   10380:	02069713          	slli	a4,a3,0x20
   10384:	01d75793          	srli	a5,a4,0x1d
   10388:	21078793          	addi	a5,a5,528
   1038c:	002787b3          	add	a5,a5,sp
   10390:	f007b703          	ld	a4,-256(a5)
   10394:	a0e787d3          	fle.s	a5,fa5,fa4
   10398:	fff6869b          	addiw	a3,a3,-1
   1039c:	00e13423          	sd	a4,8(sp)
   103a0:	02078063          	beqz	a5,103c0 <_Z17intersect_bucketsPvPK7TreeletP3Hit.isra.0+0x128>
   103a4:	1a668063          	beq	a3,t1,10544 <_Z17intersect_bucketsPvPK7TreeletP3Hit.isra.0+0x2ac>
   103a8:	02069713          	slli	a4,a3,0x20
   103ac:	01d75793          	srli	a5,a4,0x1d
   103b0:	21078793          	addi	a5,a5,528
   103b4:	002787b3          	add	a5,a5,sp
   103b8:	f007a707          	flw	fa4,-256(a5)
   103bc:	fc5ff06f          	j	10380 <_Z17intersect_bucketsPvPK7TreeletP3Hit.isra.0+0xe8>
   103c0:	00c12703          	lw	a4,12(sp)
   103c4:	00177793          	andi	a5,a4,1
   103c8:	04078063          	beqz	a5,10408 <_Z17intersect_bucketsPvPK7TreeletP3Hit.isra.0+0x170>
   103cc:	0fc0006f          	j	104c8 <_Z17intersect_bucketsPvPK7TreeletP3Hit.isra.0+0x230>
   103d0:	a0f597d3          	flt.s	a5,fa1,fa5
   103d4:	02078063          	beqz	a5,103f4 <_Z17intersect_bucketsPvPK7TreeletP3Hit.isra.0+0x15c>
   103d8:	0016869b          	addiw	a3,a3,1
   103dc:	02069413          	slli	s0,a3,0x20
   103e0:	01d45793          	srli	a5,s0,0x1d
   103e4:	21078793          	addi	a5,a5,528
   103e8:	002787b3          	add	a5,a5,sp
   103ec:	f0b7a027          	fsw	fa1,-256(a5)
   103f0:	f0c7a223          	sw	a2,-252(a5)
   103f4:	a0f717d3          	flt.s	a5,fa4,fa5
   103f8:	fa0786e3          	beqz	a5,103a4 <_Z17intersect_bucketsPvPK7TreeletP3Hit.isra.0+0x10c>
   103fc:	00e12623          	sw	a4,12(sp)
   10400:	00177793          	andi	a5,a4,1
   10404:	0c079263          	bnez	a5,104c8 <_Z17intersect_bucketsPvPK7TreeletP3Hit.isra.0+0x230>
   10408:	00813783          	ld	a5,8(sp)
   1040c:	00277713          	andi	a4,a4,2
   10410:	0257d793          	srli	a5,a5,0x25
   10414:	18071863          	bnez	a4,105a4 <_Z17intersect_bucketsPvPK7TreeletP3Hit.isra.0+0x30c>
   10418:	00279793          	slli	a5,a5,0x2
   1041c:	00f587b3          	add	a5,a1,a5
   10420:	0187a703          	lw	a4,24(a5)
   10424:	0207ad07          	flw	fs10,32(a5)
   10428:	0247ac87          	flw	fs9,36(a5)
   1042c:	0287a907          	flw	fs2,40(a5)
   10430:	02c7a887          	flw	fa7,44(a5)
   10434:	0307a607          	flw	fa2,48(a5)
   10438:	0347a687          	flw	fa3,52(a5)
   1043c:	0387a603          	lw	a2,56(a5)
   10440:	21ce01d3          	fmv.s	ft3,ft8
   10444:	214a0253          	fmv.s	ft4,fs4
   10448:	218c02d3          	fmv.s	ft5,fs8
   1044c:	0007a307          	flw	ft6,0(a5)
   10450:	0047a387          	flw	ft7,4(a5)
   10454:	0087a407          	flw	fs0,8(a5)
   10458:	00c7a487          	flw	fs1,12(a5)
   1045c:	0107a507          	flw	fa0,16(a5)
   10460:	0147a587          	flw	fa1,20(a5)
   10464:	0000870b          	boxisect	fa4
   10468:	21ad0353          	fmv.s	ft6,fs10
   1046c:	219c83d3          	fmv.s	ft7,fs9
   10470:	21290453          	fmv.s	fs0,fs2
   10474:	211884d3          	fmv.s	fs1,fa7
   10478:	20c60553          	fmv.s	fa0,fa2
   1047c:	20d685d3          	fmv.s	fa1,fa3
   10480:	0000858b          	boxisect	fa1
   10484:	a0b717d3          	flt.s	a5,fa4,fa1
   10488:	f40794e3          	bnez	a5,103d0 <_Z17intersect_bucketsPvPK7TreeletP3Hit.isra.0+0x138>
   1048c:	a0f717d3          	flt.s	a5,fa4,fa5
   10490:	02078063          	beqz	a5,104b0 <_Z17intersect_bucketsPvPK7TreeletP3Hit.isra.0+0x218>
   10494:	0016869b          	addiw	a3,a3,1
   10498:	02069413          	slli	s0,a3,0x20
   1049c:	01d45793          	srli	a5,s0,0x1d
   104a0:	21078793          	addi	a5,a5,528
   104a4:	002787b3          	add	a5,a5,sp
   104a8:	f0e7a027          	fsw	fa4,-256(a5)
   104ac:	f0e7a223          	sw	a4,-252(a5)
   104b0:	a0f597d3          	flt.s	a5,fa1,fa5
   104b4:	ee0788e3          	beqz	a5,103a4 <_Z17intersect_bucketsPvPK7TreeletP3Hit.isra.0+0x10c>
   104b8:	00060713          	mv	a4,a2
   104bc:	00e12623          	sw	a4,12(sp)
   104c0:	00177793          	andi	a5,a4,1
   104c4:	f40782e3          	beqz	a5,10408 <_Z17intersect_bucketsPvPK7TreeletP3Hit.isra.0+0x170>
   104c8:	00813403          	ld	s0,8(sp)
   104cc:	00000613          	li	a2,0
   104d0:	02545793          	srli	a5,s0,0x25
   104d4:	00279793          	slli	a5,a5,0x2
   104d8:	02245413          	srli	s0,s0,0x22
   104dc:	00f587b3          	add	a5,a1,a5
   104e0:	00747413          	andi	s0,s0,7
   104e4:	0247a483          	lw	s1,36(a5)
   104e8:	21ef01d3          	fmv.s	ft3,ft10
   104ec:	21ff8253          	fmv.s	ft4,ft11
   104f0:	215a82d3          	fmv.s	ft5,fs5
   104f4:	0007a307          	flw	ft6,0(a5)
   104f8:	0047a387          	flw	ft7,4(a5)
   104fc:	0087a407          	flw	fs0,8(a5)
   10500:	00c7a487          	flw	fs1,12(a5)
   10504:	0107a507          	flw	fa0,16(a5)
   10508:	0147a587          	flw	fa1,20(a5)
   1050c:	0187a607          	flw	fa2,24(a5)
   10510:	01c7a687          	flw	fa3,28(a5)
   10514:	0207a707          	flw	fa4,32(a5)
   10518:	213988d3          	fmv.s	fa7,fs3
   1051c:	0001070b          	triisect	a4
   10520:	0007071b          	sext.w	a4,a4
   10524:	211889d3          	fmv.s	fs3,fa7
   10528:	0016061b          	addiw	a2,a2,1
   1052c:	00070663          	beqz	a4,10538 <_Z17intersect_bucketsPvPK7TreeletP3Hit.isra.0+0x2a0>
   10530:	00048e93          	mv	t4,s1
   10534:	00100e13          	li	t3,1
   10538:	02878793          	addi	a5,a5,40
   1053c:	fac474e3          	bgeu	s0,a2,104e4 <_Z17intersect_bucketsPvPK7TreeletP3Hit.isra.0+0x24c>
   10540:	e66694e3          	bne	a3,t1,103a8 <_Z17intersect_bucketsPvPK7TreeletP3Hit.isra.0+0x110>
   10544:	020e0063          	beqz	t3,10564 <_Z17intersect_bucketsPvPK7TreeletP3Hit.isra.0+0x2cc>
   10548:	020f1713          	slli	a4,t5,0x20
   1054c:	01c75793          	srli	a5,a4,0x1c
   10550:	00f087b3          	add	a5,ra,a5
   10554:	20f788d3          	fmv.s	fa7,fa5
   10558:	21080953          	fmv.s	fs2,fa6
   1055c:	f00e8a53          	fmv.w.x	fs4,t4
   10560:	0117a00b          	sbray	fa7,0(a5)
   10564:	da0888e3          	beqz	a7,10314 <_Z17intersect_bucketsPvPK7TreeletP3Hit.isra.0+0x7c>
   10568:	fff8879b          	addiw	a5,a7,-1
   1056c:	02079713          	slli	a4,a5,0x20
   10570:	01e75793          	srli	a5,a4,0x1e
   10574:	01410693          	addi	a3,sp,20
   10578:	01010713          	addi	a4,sp,16
   1057c:	00d787b3          	add	a5,a5,a3
   10580:	21ef01d3          	fmv.s	ft3,ft10
   10584:	21ff8253          	fmv.s	ft4,ft11
   10588:	215a82d3          	fmv.s	ft5,fs5
   1058c:	f00f0353          	fmv.w.x	ft6,t5
   10590:	00072387          	flw	ft7,0(a4)
   10594:	0008200b          	sbray	ft0,0(a6)
   10598:	00470713          	addi	a4,a4,4
   1059c:	fef712e3          	bne	a4,a5,10580 <_Z17intersect_bucketsPvPK7TreeletP3Hit.isra.0+0x2e8>
   105a0:	d75ff06f          	j	10314 <_Z17intersect_bucketsPvPK7TreeletP3Hit.isra.0+0x7c>
   105a4:	02089613          	slli	a2,a7,0x20
   105a8:	01e65713          	srli	a4,a2,0x1e
   105ac:	21070713          	addi	a4,a4,528
   105b0:	00270733          	add	a4,a4,sp
   105b4:	e0f72023          	sw	a5,-512(a4)
   105b8:	0018889b          	addiw	a7,a7,1
   105bc:	de9ff06f          	j	103a4 <_Z17intersect_bucketsPvPK7TreeletP3Hit.isra.0+0x10c>

00000000000105c0 <_Z6_lbrayPKvRj>:
   105c0:	0005900b          	lbray	ft0,0(a1)
   105c4:	00052027          	fsw	ft0,0(a0) # ffffffffff000000 <__global_pointer$+0xfffffffffefee104>
   105c8:	00152227          	fsw	ft1,4(a0)
   105cc:	00252427          	fsw	ft2,8(a0)
   105d0:	00352627          	fsw	ft3,12(a0)
   105d4:	00452827          	fsw	ft4,16(a0)
   105d8:	00552a27          	fsw	ft5,20(a0)
   105dc:	00652c27          	fsw	ft6,24(a0)
   105e0:	00762027          	fsw	ft7,0(a2)
   105e4:	00008067          	ret

00000000000105e8 <_Z6_sbrayRK9BucketRayjPKv>:
   105e8:	00052007          	flw	ft0,0(a0)
   105ec:	00452087          	flw	ft1,4(a0)
   105f0:	00852107          	flw	ft2,8(a0)
   105f4:	00c52187          	flw	ft3,12(a0)
   105f8:	01052207          	flw	ft4,16(a0)
   105fc:	01452287          	flw	ft5,20(a0)
   10600:	01852307          	flw	ft6,24(a0)
   10604:	f00583d3          	fmv.w.x	ft7,a1
   10608:	0006200b          	sbray	ft0,0(a2)
   1060c:	00008067          	ret

0000000000010610 <_Z6_cshitRK3HitPS_>:
   10610:	ff010113          	addi	sp,sp,-16
   10614:	01212627          	fsw	fs2,12(sp)
   10618:	01312427          	fsw	fs3,8(sp)
   1061c:	01412227          	fsw	fs4,4(sp)
   10620:	00052887          	flw	fa7,0(a0)
   10624:	00452907          	flw	fs2,4(a0)
   10628:	00852987          	flw	fs3,8(a0)
   1062c:	00c52a07          	flw	fs4,12(a0)
   10630:	0115a00b          	sbray	fa7,0(a1)
   10634:	00c12907          	flw	fs2,12(sp)
   10638:	00812987          	flw	fs3,8(sp)
   1063c:	00412a07          	flw	fs4,4(sp)
   10640:	01010113          	addi	sp,sp,16
   10644:	00008067          	ret
