
./bin/riscv/path-tracer:     file format elf64-littleriscv
./bin/riscv/path-tracer
architecture: riscv:rv64, flags 0x00000112:
EXEC_P, HAS_SYMS, D_PAGED
start address 0x00000000000100b0

Program Header:
0x70000003 off    0x000000000000a2e9 vaddr 0x0000000000000000 paddr 0x0000000000000000 align 2**0
         filesz 0x0000000000000034 memsz 0x0000000000000000 flags r--
    LOAD off    0x0000000000000000 vaddr 0x0000000000010000 paddr 0x0000000000010000 align 2**12
         filesz 0x000000000000a2bc memsz 0x000000000000a2bc flags r-x

Sections:
Idx Name          Size      VMA               LMA               File off  Algn
  0 .text         00008c84  00000000000100b0  00000000000100b0  000000b0  2**2
                  CONTENTS, ALLOC, LOAD, READONLY, CODE
  1 .rodata       00000040  0000000000018d38  0000000000018d38  00008d38  2**3
                  CONTENTS, ALLOC, LOAD, READONLY, DATA
  2 .eh_frame     000004d8  0000000000018d78  0000000000018d78  00008d78  2**3
                  CONTENTS, ALLOC, LOAD, READONLY, DATA
  3 .sdata        0000006c  000000000001a250  000000000001a250  0000a250  2**3
                  CONTENTS, ALLOC, LOAD, READONLY, DATA
  4 .comment      0000002d  0000000000000000  0000000000000000  0000a2bc  2**0
                  CONTENTS, READONLY
  5 .riscv.attributes 00000034  0000000000000000  0000000000000000  0000a2e9  2**0
                  CONTENTS, READONLY
  6 .debug_aranges 000000c0  0000000000000000  0000000000000000  0000a31d  2**0
                  CONTENTS, READONLY, DEBUGGING, OCTETS
  7 .debug_info   0001ebb8  0000000000000000  0000000000000000  0000a3dd  2**0
                  CONTENTS, READONLY, DEBUGGING, OCTETS
  8 .debug_abbrev 00000924  0000000000000000  0000000000000000  00028f95  2**0
                  CONTENTS, READONLY, DEBUGGING, OCTETS
  9 .debug_line   000178b5  0000000000000000  0000000000000000  000298b9  2**0
                  CONTENTS, READONLY, DEBUGGING, OCTETS
 10 .debug_str    0000402b  0000000000000000  0000000000000000  0004116e  2**0
                  CONTENTS, READONLY, DEBUGGING, OCTETS
 11 .debug_line_str 00000414  0000000000000000  0000000000000000  00045199  2**0
                  CONTENTS, READONLY, DEBUGGING, OCTETS
 12 .debug_loclists 0001850c  0000000000000000  0000000000000000  000455ad  2**0
                  CONTENTS, READONLY, DEBUGGING, OCTETS
 13 .debug_rnglists 00012f95  0000000000000000  0000000000000000  0005dab9  2**0
                  CONTENTS, READONLY, DEBUGGING, OCTETS
SYMBOL TABLE:
00000000000100b0 l    d  .text	0000000000000000 .text
0000000000018d38 l    d  .rodata	0000000000000000 .rodata
0000000000018d78 l    d  .eh_frame	0000000000000000 .eh_frame
000000000001a250 l    d  .sdata	0000000000000000 .sdata
0000000000000000 l    d  .comment	0000000000000000 .comment
0000000000000000 l    d  .riscv.attributes	0000000000000000 .riscv.attributes
0000000000000000 l    d  .debug_aranges	0000000000000000 .debug_aranges
0000000000000000 l    d  .debug_info	0000000000000000 .debug_info
0000000000000000 l    d  .debug_abbrev	0000000000000000 .debug_abbrev
0000000000000000 l    d  .debug_line	0000000000000000 .debug_line
0000000000000000 l    d  .debug_str	0000000000000000 .debug_str
0000000000000000 l    d  .debug_line_str	0000000000000000 .debug_line_str
0000000000000000 l    d  .debug_loclists	0000000000000000 .debug_loclists
0000000000000000 l    d  .debug_rnglists	0000000000000000 .debug_rnglists
0000000000000000 l    df *ABS*	0000000000000000 path-tracer.cpp
00000000000100d0 l     F .text	0000000000001af0 _ZL11path_tracerRK10GlobalData.constprop.0
0000000000018d38 l     O .rodata	0000000000000040 _ZL15lod_node_offset
0000000000000000 l    df *ABS*	0000000000000000 memcpy.c
000000000001aa50 g       *ABS*	0000000000000000 __global_pointer$
0000000000011d04  w    F .text	00000000000014cc _Z9intersectjRK32TesselationTree1SecondaryRayDataRK3RayR3Hit
000000000001a250 g       .sdata	0000000000000000 __SDATA_BEGIN__
0000000000018b90 g     F .text	00000000000001a4 memcpy
00000000000169e4  w    F .text	0000000000000570 _Z9intersectI12MeshPointersEbPKN3BVH4NodeERKT_RK3RayR3Hit
000000000001880c  w    F .text	0000000000000384 _Z9intersectI32TesselationTree1SecondaryRayDataEbPKN3BVH4NodeERKT_RK3RayR3Hit
000000000001515c  w    F .text	0000000000001888 _Z9intersectI24TesselationTree4PointersEbPKN3BVH15CompressedNode4ERKT_RK3RayR3Hit
0000000000014b44  w    F .text	0000000000000618 _Z9intersectI12MeshPointersEbPKN3BVH15CompressedNode4ERKT_RK3RayR3Hit
000000000001a2c0 g       .sdata	0000000000000000 __BSS_END__
00000000000131d0  w    F .text	0000000000001974 _Z9intersectjRK32TesselationTree4SecondaryRayDataRK3RayR3Hit
000000000001a2bc g       .sdata	0000000000000000 __bss_start
0000000000016f54  w    F .text	00000000000014c4 _Z9intersectI24TesselationTree1PointersEbPKN3BVH4NodeERKT_RK3RayR3Hit
00000000000100b0 g     F .text	0000000000000020 main
0000000000018418  w    F .text	00000000000003f4 _Z9intersectI32TesselationTree4SecondaryRayDataEbPKN3BVH15CompressedNode4ERKT_RK3RayR3Hit
000000000001a250 g       .sdata	0000000000000000 __DATA_BEGIN__
000000000001a2bc g       .sdata	0000000000000000 _edata
000000000001a2c0 g       .sdata	0000000000000000 _end
0000000000011c3c g     F .text	00000000000000c8 _Z9intersectRK10GlobalDatajRK3RayRS2_R3Hit
0000000000011bc0 g     F .text	000000000000007c _Z9intersectRK10GlobalDataRK3RayR3Hit



Disassembly of section .text:

00000000000100b0 <main>:
}

#ifdef ARCH_RISCV
//gcc will only set main as entry point so we'll do this for now but we could theortically use path_tracer as entry
int main()
{
   100b0:	ff010113          	add	sp,sp,-16
   100b4:	00113423          	sd	ra,8(sp)
	path_tracer(*(GlobalData*)GLOBAL_DATA_ADDRESS);
   100b8:	00000097          	auipc	ra,0x0
   100bc:	018080e7          	jalr	24(ra) # 100d0 <_ZL11path_tracerRK10GlobalData.constprop.0>
	return 0;
}
   100c0:	00813083          	ld	ra,8(sp)
   100c4:	00000513          	li	a0,0
   100c8:	01010113          	add	sp,sp,16
   100cc:	00008067          	ret

00000000000100d0 <_ZL11path_tracerRK10GlobalData.constprop.0>:
void static inline path_tracer(const GlobalData& global_data)
   100d0:	ae010113          	add	sp,sp,-1312
   100d4:	50113c23          	sd	ra,1304(sp)
   100d8:	50813823          	sd	s0,1296(sp)
   100dc:	50913423          	sd	s1,1288(sp)
   100e0:	51213023          	sd	s2,1280(sp)
   100e4:	4f313c23          	sd	s3,1272(sp)
   100e8:	4f413823          	sd	s4,1264(sp)
   100ec:	4f513423          	sd	s5,1256(sp)
   100f0:	4f613023          	sd	s6,1248(sp)
   100f4:	4d713c23          	sd	s7,1240(sp)
   100f8:	4d813823          	sd	s8,1232(sp)
   100fc:	4d913423          	sd	s9,1224(sp)
   10100:	4da13023          	sd	s10,1216(sp)
   10104:	4bb13c23          	sd	s11,1208(sp)
   10108:	4a812627          	fsw	fs0,1196(sp)
   1010c:	4a912427          	fsw	fs1,1192(sp)
   10110:	4b212227          	fsw	fs2,1188(sp)
   10114:	4b312027          	fsw	fs3,1184(sp)
   10118:	49412e27          	fsw	fs4,1180(sp)
   1011c:	49512c27          	fsw	fs5,1176(sp)
   10120:	49612a27          	fsw	fs6,1172(sp)
   10124:	49712827          	fsw	fs7,1168(sp)
   10128:	49812627          	fsw	fs8,1164(sp)
   1012c:	49912427          	fsw	fs9,1160(sp)
   10130:	49a12227          	fsw	fs10,1156(sp)
   10134:	49b12027          	fsw	fs11,1152(sp)

inline uint32_t atomicinc()
{
	#ifdef ARCH_RISCV
	uint32_t value;
	asm volatile("traxamoin %[rd]\n\t" : [rd] "=r" (value));
   10138:	00000d8b          	traxamoin	s11
	for(uint32_t index = atomicinc(); index < global_data.framebuffer_size; index = atomicinc())
   1013c:	04802783          	lw	a5,72(zero) # 48 <main-0x10068>
   10140:	000d8d9b          	sext.w	s11,s11
   10144:	6afdf4e3          	bgeu	s11,a5,10fec <_ZL11path_tracerRK10GlobalData.constprop.0+0xf1c>
   10148:	42f10c13          	add	s8,sp,1071
   1014c:	fc0c7c13          	and	s8,s8,-64
   10150:	0001a4b7          	lui	s1,0x1a
   10154:	0001a937          	lui	s2,0x1a
   10158:	0001a9b7          	lui	s3,0x1a
		uint32_t x = index % global_data.framebuffer_width;
   1015c:	04002783          	lw	a5,64(zero) # 40 <main-0x10070>
	}

	//Robert Jenkins' one a time hash funcion for size 1 https://en.wikipedia.org/wiki/Jenkins_hash_function
	static uint32_t fast_hash(uint32_t u)
	{
		u += u << 10;
   10160:	2584a787          	flw	fa5,600(s1) # 1a258 <__DATA_BEGIN__+0x8>
		this->seed(seed);
	}

	void seed(uint32_t seed)
	{
		rng_state = fast_hash(seed + 1);
   10164:	001d871b          	addw	a4,s11,1
		uint32_t y = index / global_data.framebuffer_width;	
   10168:	02fdd63b          	divuw	a2,s11,a5
   1016c:	00a7169b          	sllw	a3,a4,0xa
   10170:	00e686bb          	addw	a3,a3,a4
		u ^= u >> 6;
   10174:	0066d71b          	srlw	a4,a3,0x6
   10178:	00d74733          	xor	a4,a4,a3
   1017c:	0037169b          	sllw	a3,a4,0x3
   10180:	00e686bb          	addw	a3,a3,a4
			float b;
		};
	};

	vec3() = default;
	vec3(float e0) { e[0] = e0; e[1] = e0; e[2] = e0; }
   10184:	f0000d53          	fmv.w.x	fs10,zero
		u ^= u >> 11;
   10188:	00b6d71b          	srlw	a4,a3,0xb
   1018c:	00d74733          	xor	a4,a4,a3
   10190:	00f71a9b          	sllw	s5,a4,0xf
   10194:	00ea8abb          	addw	s5,s5,a4
	}
	#endif

	Ray generate_ray_through_pixel(uint i, uint j, RNG* rng = nullptr) const
	{
		rtm::vec2 uv((float)i, (float)j);
   10198:	40000a13          	li	s4,1024
   1019c:	05a12227          	fsw	fs10,68(sp)
		uint32_t x = index % global_data.framebuffer_width;
   101a0:	02fdf7bb          	remuw	a5,s11,a5
   101a4:	d0167753          	fcvt.s.wu	fa4,a2
   101a8:	08f77c53          	fsub.s	fs8,fa4,fa5
   101ac:	05812627          	fsw	fs8,76(sp)
   101b0:	d017f753          	fcvt.s.wu	fa4,a5
   101b4:	08f77cd3          	fsub.s	fs9,fa4,fa5
   101b8:	05912427          	fsw	fs9,72(sp)
		return 1664525 * u + 1013904223;
   101bc:	001965b7          	lui	a1,0x196
   101c0:	60d5859b          	addw	a1,a1,1549 # 19660d <__global_pointer$+0x17bbbd>
   101c4:	02ba86bb          	mulw	a3,s5,a1
		uint32_t bits = u & 0x007FFFFFu | 0x3F800000u;
   101c8:	008007b7          	lui	a5,0x800
   101cc:	fff78793          	add	a5,a5,-1 # 7fffff <__global_pointer$+0x7e55af>
   101d0:	00faf733          	and	a4,s5,a5
   101d4:	3f800537          	lui	a0,0x3f800
		return *((float*)(&bits)) - 1.0f;
   101d8:	00a76733          	or	a4,a4,a0
	return *this;
}

inline vec2& vec2::operator+=(const vec2 &v)
{
	e[0] += v[0];
   101dc:	04812787          	flw	fa5,72(sp)
   101e0:	f0070753          	fmv.w.x	fa4,a4
		return 1664525 * u + 1013904223;
   101e4:	3c6ef637          	lui	a2,0x3c6ef
   101e8:	35f6061b          	addw	a2,a2,863 # 3c6ef35f <__global_pointer$+0x3c6d490f>
   101ec:	00e7f753          	fadd.s	fa4,fa5,fa4
   101f0:	00c6873b          	addw	a4,a3,a2
	return *this;
}

inline vec2& vec2::operator-=(const vec2 &v)
{
	e[0] -= v[0];
   101f4:	0001a6b7          	lui	a3,0x1a
   101f8:	05c02787          	flw	fa5,92(zero) # 5c <main-0x10054>
   101fc:	27c6a687          	flw	fa3,636(a3) # 1a27c <__DATA_BEGIN__+0x2c>
		uint32_t bits = u & 0x007FFFFFu | 0x3F800000u;
   10200:	00e7f7b3          	and	a5,a5,a4
		return *((float*)(&bits)) - 1.0f;
   10204:	00a7e7b3          	or	a5,a5,a0
   10208:	68f77743          	fmadd.s	fa4,fa4,fa5,fa3
	e[1] += v[1];
   1020c:	f00786d3          	fmv.w.x	fa3,a5
   10210:	04c12787          	flw	fa5,76(sp)
	e[1] -= v[1];
   10214:	27c6a607          	flw	fa2,636(a3)
   10218:	07402507          	flw	fa0,116(zero) # 74 <main-0x1003c>
	e[1] += v[1];
   1021c:	00d7f7d3          	fadd.s	fa5,fa5,fa3
	e[1] -= v[1];
   10220:	06002687          	flw	fa3,96(zero) # 60 <main-0x10050>
   10224:	08802187          	flw	ft3,136(zero) # 88 <main-0x10028>
		uv *= _recip_res;
		uv -= rtm::vec2(0.5f);

		Ray ray;
		ray.d = (_x * uv.x + _y * uv.y - _z);
		ray.t_min = T_MIN;
   10228:	25092207          	flw	ft4,592(s2) # 1a250 <__DATA_BEGIN__>
	vec3(float e0, float e1, float e2) { e[0] = e0; e[1] = e1; e[2] = e2; }

	inline const vec3& operator+() const { return *this; }
	inline vec3 operator-() const { return vec3(-e[0], -e[1], -e[2]); }
	inline float operator[](int i) const { return e[i]; }
   1022c:	07802107          	flw	ft2,120(zero) # 78 <main-0x10038>
   10230:	60d7f7c3          	fmadd.s	fa5,fa5,fa3,fa2
   10234:	08c02687          	flw	fa3,140(zero) # 8c <main-0x10024>
   10238:	08002607          	flw	fa2,128(zero) # 80 <main-0x10030>
   1023c:	07c02587          	flw	fa1,124(zero) # 7c <main-0x10034>
   10240:	68a77547          	fmsub.s	fa0,fa4,fa0,fa3
   10244:	07002687          	flw	fa3,112(zero) # 70 <main-0x10040>
   10248:	08402007          	flw	ft0,132(zero) # 84 <main-0x1002c>
   1024c:	09002087          	flw	ft1,144(zero) # 90 <main-0x10020>
   10250:	18d776c7          	fmsub.s	fa3,fa4,fa3,ft3
	return vec3(a[0] + b[0], a[1] + b[1], a[2] + b[2]);
}

inline vec3 operator-(const vec3 &a, const vec3 &b)
{
	return vec3(a[0] - b[0], a[1] - b[1], a[2] - b[2]);
   10254:	50c7f643          	fmadd.s	fa2,fa5,fa2,fa0
   10258:	08412e27          	fsw	ft4,156(sp)
	inline float operator[](int i) const { return e[i]; }
   1025c:	06402c07          	flw	fs8,100(zero) # 64 <main-0x1004c>
   10260:	08277747          	fmsub.s	fa4,fa4,ft2,ft1
	return vec3(a[0] - b[0], a[1] - b[1], a[2] - b[2]);
   10264:	68b7f5c3          	fmadd.s	fa1,fa5,fa1,fa3
	e[0] = v[0];
   10268:	09812827          	fsw	fs8,144(sp)



inline float dot(const vec3 & a, const vec3 &b)
{
	return a[0] * b[0] + a[1] * b[1] + a[2] * b[2];
   1026c:	10c676d3          	fmul.s	fa3,fa2,fa2
	inline float operator[](int i) const { return e[i]; }
   10270:	06802487          	flw	fs1,104(zero) # 68 <main-0x10048>
		return 1664525 * u + 1013904223;
   10274:	02b7073b          	mulw	a4,a4,a1
		ray.o = _position;
		ray.t_max = T_MAX;
   10278:	0001a7b7          	lui	a5,0x1a
	e[1] = v[1];
   1027c:	08912a27          	fsw	fs1,148(sp)
	inline float operator[](int i) const { return e[i]; }
   10280:	06c02b87          	flw	fs7,108(zero) # 6c <main-0x10044>
	return vec3(a[0] - b[0], a[1] - b[1], a[2] - b[2]);
   10284:	7007f7c3          	fmadd.s	fa5,fa5,ft0,fa4
	return a[0] * b[0] + a[1] * b[1] + a[2] * b[2];
   10288:	68b5f743          	fmadd.s	fa4,fa1,fa1,fa3
   1028c:	2787a687          	flw	fa3,632(a5) # 1a278 <__DATA_BEGIN__+0x28>
	e[2] = v[2];
   10290:	09712c27          	fsw	fs7,152(sp)

		ray.radius = 0.0f;
   10294:	0a012a23          	sw	zero,180(sp)
		ray.t_max = T_MAX;
   10298:	0ad12627          	fsw	fa3,172(sp)
		ray.drdt = _drdt;
   1029c:	05802687          	flw	fa3,88(zero) # 58 <main-0x10058>
	return a[0] * b[0] + a[1] * b[1] + a[2] * b[2];
   102a0:	70f7f743          	fmadd.s	fa4,fa5,fa5,fa4
   102a4:	00c70abb          	addw	s5,a4,a2
   102a8:	0ad12827          	fsw	fa3,176(sp)
	return sqrtf(input);
	#endif

	#ifdef ARCH_RISCV
	float output = 0.0f;
	asm volatile ("fsqrt.s %[rd], %[rs1]\n\t" : [rd] "=f" (output) : [rs1] "f" (input));
   102ac:	58077753          	fsqrt.s	fa4,fa4
	return vec3(a[0] / b[0], a[1] / b[1], a[2] / b[2]);
   102b0:	18e67cd3          	fdiv.s	fs9,fa2,fa4
			Ray last_ray = ray;
   102b4:	09013783          	ld	a5,144(sp)
				 hit.t = ray.t_max;
   102b8:	0001a737          	lui	a4,0x1a
			ray.rcp_max_error = 1.0f;
   102bc:	2584a687          	flw	fa3,600(s1)
			Ray last_ray = ray;
   102c0:	0cf13023          	sd	a5,192(sp)
   102c4:	09813783          	ld	a5,152(sp)
			ray.rcp_max_error = 1.0f;
   102c8:	0ad12c27          	fsw	fa3,184(sp)
	vec3(float e0) { e[0] = e0; e[1] = e0; e[2] = e0; }
   102cc:	20d68b53          	fmv.s	fs6,fa3
			Ray last_ray = ray;
   102d0:	0cf13423          	sd	a5,200(sp)
   102d4:	0b013783          	ld	a5,176(sp)
			for(uint i = 0; true; ++i)
   102d8:	00000b13          	li	s6,0
			uint last_patch_index = ~0u;
   102dc:	fff00513          	li	a0,-1
			Ray last_ray = ray;
   102e0:	0ef13023          	sd	a5,224(sp)
   102e4:	3f8007b7          	lui	a5,0x3f800
   102e8:	0ef12423          	sw	a5,232(sp)
   102ec:	000d8d13          	mv	s10,s11
	return vec3(a[0] / b[0], a[1] / b[1], a[2] / b[2]);
   102f0:	18e5f9d3          	fdiv.s	fs3,fa1,fa4
	e[1] = v[1];
   102f4:	0b912227          	fsw	fs9,164(sp)
   102f8:	219c8a53          	fmv.s	fs4,fs9
	return vec3(a[0] / b[0], a[1] / b[1], a[2] / b[2]);
   102fc:	18e7fdd3          	fdiv.s	fs11,fa5,fa4
	e[0] = v[0];
   10300:	0b312027          	fsw	fs3,160(sp)
   10304:	0a013783          	ld	a5,160(sp)
				 hit.t = ray.t_max;
   10308:	27872787          	flw	fa5,632(a4) # 1a278 <__DATA_BEGIN__+0x28>
	return false;
}

bool intersect(const GlobalData& global_data, uint last_patch_index, const Ray& last_ray, Ray& ray, Hit& hit)
{
	switch(global_data.config)
   1030c:	00200713          	li	a4,2
			Ray last_ray = ray;
   10310:	0cf13823          	sd	a5,208(sp)
	e[2] = v[2];
   10314:	0bb12427          	fsw	fs11,168(sp)
   10318:	0a813783          	ld	a5,168(sp)
   1031c:	21bd8cd3          	fmv.s	fs9,fs11
   10320:	0cf13c23          	sd	a5,216(sp)
   10324:	09802783          	lw	a5,152(zero) # 98 <main-0x10018>
				 hit.t = ray.t_max;
   10328:	06f12027          	fsw	fa5,96(sp)
   1032c:	06e788e3          	beq	a5,a4,10b9c <_ZL11path_tracerRK10GlobalData.constprop.0+0xacc>
   10330:	10f76663          	bltu	a4,a5,1043c <_ZL11path_tracerRK10GlobalData.constprop.0+0x36c>
   10334:	78078ae3          	beqz	a5,112c8 <_ZL11path_tracerRK10GlobalData.constprop.0+0x11f8>
	return vec3(a[0] / b[0], a[1] / b[1], a[2] / b[2]);
   10338:	2584a907          	flw	fs2,600(s1)
   1033c:	0001a7b7          	lui	a5,0x1a
   10340:	26c7a787          	flw	fa5,620(a5) # 1a26c <__DATA_BEGIN__+0x1c>
   10344:	19497d53          	fdiv.s	fs10,fs2,fs4
	node_stack[3 * 32];

	rtm::vec3 inv_d = rtm::vec3(1.0f) / ray.d;

	uint32_t node_stack_size = 1u;
	node_stack[0].t = ray.t_min;
   10348:	0001a7b7          	lui	a5,0x1a
   1034c:	0987f0d3          	fsub.s	ft1,fa5,fs8
   10350:	2787a007          	flw	ft0,632(a5) # 1a278 <__DATA_BEGIN__+0x28>
	return f >= 2.0f ? 0x8000u : (((as_u32(f) + 0xffu) >> 8) & 0x7fffu);
}

static float u16_to_f32(uint16_t u16)
{
	return u16 & 0x8000u ? 1.0f : as_f32(((uint32_t)u16 << 8) | 0x3f800000u) - 1.0f;
   10354:	0001a7b7          	lui	a5,0x1a
   10358:	2607a407          	flw	fs0,608(a5) # 1a260 <__DATA_BEGIN__+0x10>
struct TesselationTree4SecondaryRayData
{
	const TesselationTree4Pointers& tes_tree;
	const Ray& last_ray;
	uint last_patch_index;
	TesselationTree4SecondaryRayData(const TesselationTree4Pointers& tes_tree, uint last_patch_index, const Ray& last_ray) : tes_tree(tes_tree), last_ray(last_ray), last_patch_index(last_patch_index) {}
   1035c:	0a800793          	li	a5,168
			return intersect(global_data.cblas, global_data.mesh, ray, hit); //BVHC
		case 1: 
		{

			TesselationTree4SecondaryRayData data4(global_data.tt4, last_patch_index, last_ray);
			return intersect(global_data.cblas, data4, ray, hit); //TTC
   10360:	0a003b83          	ld	s7,160(zero) # a0 <main-0x10010>
   10364:	06f13c23          	sd	a5,120(sp)
   10368:	0c010793          	add	a5,sp,192
   1036c:	08f13023          	sd	a5,128(sp)
   10370:	0001a7b7          	lui	a5,0x1a
   10374:	2507b783          	ld	a5,592(a5) # 1a250 <__DATA_BEGIN__>
   10378:	01312827          	fsw	fs3,16(sp)
	node_stack[0].data.is_leaf = false;
	node_stack[0].data.fst_chld_ind = 0;
	node_stack[0].data.lst_chld_ofst = 3;

	bool found_hit = false;
   1037c:	00000413          	li	s0,0
   10380:	01513023          	sd	s5,0(sp)
   10384:	01413c23          	sd	s4,24(sp)
   10388:	08a12423          	sw	a0,136(sp)
	node_stack[0].t = ray.t_min;
   1038c:	0ef13823          	sd	a5,240(sp)
	uint32_t node_stack_size = 1u;
   10390:	00100d93          	li	s11,1
   10394:	19997ad3          	fdiv.s	fs5,fs2,fs9
   10398:	01613423          	sd	s6,8(sp)
   1039c:	00040a13          	mv	s4,s0
   103a0:	000c0a93          	mv	s5,s8
   103a4:	19397dd3          	fdiv.s	fs11,fs2,fs3
   103a8:	201089d3          	fmv.s	fs3,ft1
	do
	{
		const NodeStackEntry current_entry = node_stack[--node_stack_size];
   103ac:	fffd8d9b          	addw	s11,s11,-1
   103b0:	020d9713          	sll	a4,s11,0x20
   103b4:	01d75793          	srl	a5,a4,0x1d
   103b8:	43078793          	add	a5,a5,1072
   103bc:	05010713          	add	a4,sp,80
   103c0:	00e787b3          	add	a5,a5,a4
   103c4:	c707bc83          	ld	s9,-912(a5)
		if(current_entry.t >= hit.t) return found_hit;
   103c8:	f00c87d3          	fmv.w.x	fa5,s9
		const NodeStackEntry current_entry = node_stack[--node_stack_size];
   103cc:	05913823          	sd	s9,80(sp)
		if(current_entry.t >= hit.t) return found_hit;
   103d0:	a0f007d3          	fle.s	a5,ft0,fa5
   103d4:	00078463          	beqz	a5,103dc <_ZL11path_tracerRK10GlobalData.constprop.0+0x30c>
   103d8:	5640106f          	j	1193c <_ZL11path_tracerRK10GlobalData.constprop.0+0x186c>

		if(!current_entry.data.is_leaf)
   103dc:	05412783          	lw	a5,84(sp)
				if(new_entry.t < hit.t) insert(new_entry, node_stack, node_stack_size++);
			}
		}
		else
		{
			for(uint32_t i = 0; i <= current_entry.data.lst_chld_ofst; ++i)
   103e0:	021cd413          	srl	s0,s9,0x21
   103e4:	00747413          	and	s0,s0,7
		if(!current_entry.data.is_leaf)
   103e8:	0017f793          	and	a5,a5,1
			move_to_stack(node4, blas[current_entry.data.fst_chld_ind]);
   103ec:	024cdc93          	srl	s9,s9,0x24
		if(!current_entry.data.is_leaf)
   103f0:	460784e3          	beqz	a5,11058 <_ZL11path_tracerRK10GlobalData.constprop.0+0xf88>
			for(uint32_t i = 0; i <= current_entry.data.lst_chld_ofst; ++i)
   103f4:	0004041b          	sext.w	s0,s0
   103f8:	00000b13          	li	s6,0
   103fc:	07810c13          	add	s8,sp,120
				found_hit |= intersect(current_entry.data.fst_chld_ind + i, mesh, ray, hit);
   10400:	000c8513          	mv	a0,s9
   10404:	06010693          	add	a3,sp,96
   10408:	09010613          	add	a2,sp,144
   1040c:	000c0593          	mv	a1,s8
   10410:	00003097          	auipc	ra,0x3
   10414:	dc0080e7          	jalr	-576(ra) # 131d0 <_Z9intersectjRK32TesselationTree4SecondaryRayDataRK3RayR3Hit>
   10418:	00aa6a33          	or	s4,s4,a0
			for(uint32_t i = 0; i <= current_entry.data.lst_chld_ofst; ++i)
   1041c:	001b0b1b          	addw	s6,s6,1
				found_hit |= intersect(current_entry.data.fst_chld_ind + i, mesh, ray, hit);
   10420:	0ffa7a13          	zext.b	s4,s4
			for(uint32_t i = 0; i <= current_entry.data.lst_chld_ofst; ++i)
   10424:	001c8c9b          	addw	s9,s9,1
   10428:	fd647ce3          	bgeu	s0,s6,10400 <_ZL11path_tracerRK10GlobalData.constprop.0+0x330>
		}
	}
	while(node_stack_size);
   1042c:	000d9463          	bnez	s11,10434 <_ZL11path_tracerRK10GlobalData.constprop.0+0x364>
   10430:	50c0106f          	j	1193c <_ZL11path_tracerRK10GlobalData.constprop.0+0x186c>
		if(current_entry.t >= hit.t) return found_hit;
   10434:	06012007          	flw	ft0,96(sp)
   10438:	f75ff06f          	j	103ac <_ZL11path_tracerRK10GlobalData.constprop.0+0x2dc>
	switch(global_data.config)
   1043c:	00300713          	li	a4,3
   10440:	32e790e3          	bne	a5,a4,10f60 <_ZL11path_tracerRK10GlobalData.constprop.0+0xe90>
   10444:	2584a107          	flw	ft2,600(s1)
		case 2: 
			return intersect(global_data.blas, global_data.mesh, ray, hit); //BVH
		case 3:
		{
			TesselationTree1SecondaryRayData data1(global_data.tt1, last_patch_index, last_ray);
 			return intersect(global_data.blas, data1, ray, hit); //TT
   10448:	0a003683          	ld	a3,160(zero) # a0 <main-0x10010>
   1044c:	25092087          	flw	ft1,592(s2)
   10450:	19317d53          	fdiv.s	fs10,ft2,fs3
template <typename T>
inline void move_to_stack(T& dst, const T& src)
{
	for(uint i = 0; i < sizeof(T) / sizeof(uint64_t); ++i)
	{
		uint64_t r = ((uint64_t*)&src)[i];
   10454:	0006b603          	ld	a2,0(a3)
   10458:	0086b703          	ld	a4,8(a3)
   1045c:	0106b583          	ld	a1,16(a3)
	return vec3(a[0] - b[0], a[1] - b[1], a[2] - b[2]);
   10460:	00060793          	mv	a5,a2
   10464:	02065613          	srl	a2,a2,0x20
   10468:	f0060753          	fmv.w.x	fa4,a2
   1046c:	02075893          	srl	a7,a4,0x20
   10470:	f00787d3          	fmv.w.x	fa5,a5
   10474:	089776d3          	fsub.s	fa3,fa4,fs1
   10478:	f0088753          	fmv.w.x	fa4,a7
   1047c:	0987f7d3          	fsub.s	fa5,fa5,fs8
		((uint64_t*)&dst)[i] = r;
   10480:	0186b783          	ld	a5,24(a3)
   10484:	09877053          	fsub.s	ft0,fa4,fs8
   10488:	f0058753          	fmv.w.x	fa4,a1
   1048c:	0205d593          	srl	a1,a1,0x20
   10490:	f0058653          	fmv.w.x	fa2,a1
   10494:	08977553          	fsub.s	fa0,fa4,fs1
   10498:	f0070753          	fmv.w.x	fa4,a4
   1049c:	09767653          	fsub.s	fa2,fa2,fs7
	return vec3(a[0] / b[0], a[1] / b[1], a[2] / b[2]);
   104a0:	19417dd3          	fdiv.s	fs11,ft2,fs4
	return vec3(a[0] * b[0], a[1] * b[1], a[2] * b[2]);
   104a4:	11a07053          	fmul.s	ft0,ft0,fs10
   104a8:	11a7f7d3          	fmul.s	fa5,fa5,fs10
	return vec3(a[0] - b[0], a[1] - b[1], a[2] - b[2]);
   104ac:	09777753          	fsub.s	fa4,fa4,fs7
   104b0:	04fc3c23          	sd	a5,88(s8)
	if (tmin > tmax) return ray.t_max;//no hit || behind
   104b4:	0001a7b7          	lui	a5,0x1a
struct TesselationTree1SecondaryRayData
{
	const TesselationTree1Pointers& tes_tree;
	const Ray& last_ray;
	uint last_patch_index;
	TesselationTree1SecondaryRayData(const TesselationTree1Pointers& tes_tree, uint last_patch_index, const Ray& last_ray) : tes_tree(tes_tree), last_ray(last_ray), last_patch_index(last_patch_index) {}
   104b8:	0a800713          	li	a4,168
   104bc:	280785d3          	fmin.s	fa1,fa5,ft0
   104c0:	280797d3          	fmax.s	fa5,fa5,ft0
   104c4:	06e13c23          	sd	a4,120(sp)
   104c8:	0c010713          	add	a4,sp,192
   104cc:	08e13023          	sd	a4,128(sp)
   104d0:	08a12423          	sw	a0,136(sp)
	return vec3(a[0] / b[0], a[1] / b[1], a[2] / b[2]);
   104d4:	19917ad3          	fdiv.s	fs5,ft2,fs9
	return vec3(a[0] * b[0], a[1] * b[1], a[2] * b[2]);
   104d8:	11b6f6d3          	fmul.s	fa3,fa3,fs11
   104dc:	11b57553          	fmul.s	fa0,fa0,fs11
   104e0:	28a68053          	fmin.s	ft0,fa3,fa0
   104e4:	28a696d3          	fmax.s	fa3,fa3,fa0
   104e8:	280595d3          	fmax.s	fa1,fa1,ft0
   104ec:	28d787d3          	fmin.s	fa5,fa5,fa3
   104f0:	2787a687          	flw	fa3,632(a5) # 1a278 <__DATA_BEGIN__+0x28>
   104f4:	281595d3          	fmax.s	fa1,fa1,ft1
   104f8:	28d787d3          	fmin.s	fa5,fa5,fa3
   104fc:	11577753          	fmul.s	fa4,fa4,fs5
   10500:	115676d3          	fmul.s	fa3,fa2,fs5
	float tmin = std::max(std::max(tminv.x, tminv.y), std::max(tminv.z, ray.t_min));
   10504:	28d70653          	fmin.s	fa2,fa4,fa3
	if (tmin > tmax) return ray.t_max;//no hit || behind
   10508:	28d71753          	fmax.s	fa4,fa4,fa3
   1050c:	28c595d3          	fmax.s	fa1,fa1,fa2
   10510:	28e787d3          	fmin.s	fa5,fa5,fa4
   10514:	a0b797d3          	flt.s	a5,fa5,fa1
   10518:	00078663          	beqz	a5,10524 <_ZL11path_tracerRK10GlobalData.constprop.0+0x454>
   1051c:	0001a7b7          	lui	a5,0x1a
   10520:	2787a587          	flw	fa1,632(a5) # 1a278 <__DATA_BEGIN__+0x28>
	node_stack[0].data = root_node.data;
   10524:	2789a507          	flw	fa0,632(s3) # 1a278 <__DATA_BEGIN__+0x28>
   10528:	058c2783          	lw	a5,88(s8)
   1052c:	25092907          	flw	fs2,592(s2)
	if (tmin > tmax) return ray.t_max;//no hit || behind
   10530:	20a50453          	fmv.s	fs0,fa0
   10534:	01513023          	sd	s5,0(sp)
   10538:	01413c23          	sd	s4,24(sp)
	node_stack[0].t = intersect(root_node.aabb, ray, inv_d);
   1053c:	0eb12827          	fsw	fa1,240(sp)
	node_stack[0].data = root_node.data;
   10540:	0ef12a23          	sw	a5,244(sp)
	bool found_hit = false;
   10544:	00000413          	li	s0,0
	uint32_t node_stack_size = 1u;
   10548:	00100d93          	li	s11,1
   1054c:	0f010c93          	add	s9,sp,240
   10550:	01613423          	sd	s6,8(sp)
   10554:	01a13823          	sd	s10,16(sp)
   10558:	00068a13          	mv	s4,a3
   1055c:	000c0a93          	mv	s5,s8
		const NodeStackEntry current_entry = node_stack[--node_stack_size];
   10560:	fffd8d9b          	addw	s11,s11,-1
   10564:	020d9713          	sll	a4,s11,0x20
   10568:	01d75793          	srl	a5,a4,0x1d
   1056c:	43078793          	add	a5,a5,1072
   10570:	05010713          	add	a4,sp,80
   10574:	00e787b3          	add	a5,a5,a4
   10578:	c707b783          	ld	a5,-912(a5)
		if(current_entry.t >= hit.t) return found_hit;
   1057c:	f00787d3          	fmv.w.x	fa5,a5
		const NodeStackEntry current_entry = node_stack[--node_stack_size];
   10580:	04f13823          	sd	a5,80(sp)
		if(current_entry.t >= hit.t) return found_hit;
   10584:	a0f50753          	fle.s	a4,fa0,fa5
   10588:	1c071663          	bnez	a4,10754 <_ZL11path_tracerRK10GlobalData.constprop.0+0x684>
		if(!current_entry.data.is_leaf)
   1058c:	05412703          	lw	a4,84(sp)
			for(uint32_t i = 0; i <= current_entry.data.lst_chld_ofst; ++i)
   10590:	0217db93          	srl	s7,a5,0x21
   10594:	007bfb93          	and	s7,s7,7
		if(!current_entry.data.is_leaf)
   10598:	00177713          	and	a4,a4,1
				move_to_stack(node, blas[current_entry.data.fst_chld_ind + i]);
   1059c:	0247d793          	srl	a5,a5,0x24
		if(!current_entry.data.is_leaf)
   105a0:	16071a63          	bnez	a4,10714 <_ZL11path_tracerRK10GlobalData.constprop.0+0x644>
   105a4:	00fb8bb3          	add	s7,s7,a5
   105a8:	005b9313          	sll	t1,s7,0x5
   105ac:	00579793          	sll	a5,a5,0x5
   105b0:	020a0713          	add	a4,s4,32
   105b4:	00fa0533          	add	a0,s4,a5
   105b8:	00e30333          	add	t1,t1,a4
   105bc:	00c0006f          	j	105c8 <_ZL11path_tracerRK10GlobalData.constprop.0+0x4f8>
			for(uint32_t i = 0; i <= current_entry.data.lst_chld_ofst; ++i)
   105c0:	02050513          	add	a0,a0,32 # 3f800020 <__global_pointer$+0x3f7e55d0>
   105c4:	12a30463          	beq	t1,a0,106ec <_ZL11path_tracerRK10GlobalData.constprop.0+0x61c>
		uint64_t r = ((uint64_t*)&src)[i];
   105c8:	00053683          	ld	a3,0(a0)
   105cc:	00853703          	ld	a4,8(a0)
   105d0:	01053783          	ld	a5,16(a0)
	return vec3(a[0] - b[0], a[1] - b[1], a[2] - b[2]);
   105d4:	00068813          	mv	a6,a3
   105d8:	0206d693          	srl	a3,a3,0x20
   105dc:	f0068753          	fmv.w.x	fa4,a3
   105e0:	02075593          	srl	a1,a4,0x20
   105e4:	f00807d3          	fmv.w.x	fa5,a6
   105e8:	089776d3          	fsub.s	fa3,fa4,fs1
   105ec:	f0058753          	fmv.w.x	fa4,a1
   105f0:	0987f7d3          	fsub.s	fa5,fa5,fs8
   105f4:	098770d3          	fsub.s	ft1,fa4,fs8
   105f8:	f0078753          	fmv.w.x	fa4,a5
   105fc:	0207d793          	srl	a5,a5,0x20
   10600:	f0078653          	fmv.w.x	fa2,a5
   10604:	08977053          	fsub.s	ft0,fa4,fs1
   10608:	f0070753          	fmv.w.x	fa4,a4
	return vec3(a[0] * b[0], a[1] * b[1], a[2] * b[2]);
   1060c:	11a7f7d3          	fmul.s	fa5,fa5,fs10
   10610:	11b6f6d3          	fmul.s	fa3,fa3,fs11
   10614:	11a0f0d3          	fmul.s	ft1,ft1,fs10
   10618:	11b07053          	fmul.s	ft0,ft0,fs11
	return vec3(a[0] - b[0], a[1] - b[1], a[2] - b[2]);
   1061c:	097675d3          	fsub.s	fa1,fa2,fs7
   10620:	09777753          	fsub.s	fa4,fa4,fs7
		((uint64_t*)&dst)[i] = r;
   10624:	01853783          	ld	a5,24(a0)
   10628:	28178653          	fmin.s	fa2,fa5,ft1
   1062c:	28068153          	fmin.s	ft2,fa3,ft0
	if (tmin > tmax) return ray.t_max;//no hit || behind
   10630:	281797d3          	fmax.s	fa5,fa5,ft1
   10634:	280696d3          	fmax.s	fa3,fa3,ft0
	return vec3(a[0] * b[0], a[1] * b[1], a[2] * b[2]);
   10638:	11577753          	fmul.s	fa4,fa4,fs5
   1063c:	1155f5d3          	fmul.s	fa1,fa1,fs5
   10640:	28d787d3          	fmin.s	fa5,fa5,fa3
   10644:	28261653          	fmax.s	fa2,fa2,ft2
   10648:	00fabc23          	sd	a5,24(s5)
   1064c:	288787d3          	fmin.s	fa5,fa5,fs0
   10650:	28b706d3          	fmin.s	fa3,fa4,fa1
   10654:	29261653          	fmax.s	fa2,fa2,fs2
   10658:	28b71753          	fmax.s	fa4,fa4,fa1
   1065c:	28d616d3          	fmax.s	fa3,fa2,fa3
   10660:	28e787d3          	fmin.s	fa5,fa5,fa4
   10664:	a0d797d3          	flt.s	a5,fa5,fa3
   10668:	00078463          	beqz	a5,10670 <_ZL11path_tracerRK10GlobalData.constprop.0+0x5a0>
   1066c:	208406d3          	fmv.s	fa3,fs0
				new_entry.data = node.data;
   10670:	018aa703          	lw	a4,24(s5)
				if(new_entry.t < hit.t) insert(new_entry, node_stack, node_stack_size++);
   10674:	a0a697d3          	flt.s	a5,fa3,fa0
				new_entry.data = node.data;
   10678:	04e12e23          	sw	a4,92(sp)
				if(new_entry.t < hit.t) insert(new_entry, node_stack, node_stack_size++);
   1067c:	f40782e3          	beqz	a5,105c0 <_ZL11path_tracerRK10GlobalData.constprop.0+0x4f0>
   10680:	001d861b          	addw	a2,s11,1
	for(; j != min; --j)
   10684:	060d8a63          	beqz	s11,106f8 <_ZL11path_tracerRK10GlobalData.constprop.0+0x628>
   10688:	fffd879b          	addw	a5,s11,-1
   1068c:	020d9693          	sll	a3,s11,0x20
   10690:	01d6d713          	srl	a4,a3,0x1d
   10694:	02079693          	sll	a3,a5,0x20
   10698:	01d6d793          	srl	a5,a3,0x1d
   1069c:	000c8813          	mv	a6,s9
   106a0:	00ec8733          	add	a4,s9,a4
   106a4:	00fc87b3          	add	a5,s9,a5
   106a8:	0180006f          	j	106c0 <_ZL11path_tracerRK10GlobalData.constprop.0+0x5f0>
		stack[j] = stack[j - 1];
   106ac:	0007b683          	ld	a3,0(a5)
	for(; j != min; --j)
   106b0:	ff870713          	add	a4,a4,-8
		stack[j] = stack[j - 1];
   106b4:	00d73423          	sd	a3,8(a4)
	for(; j != min; --j)
   106b8:	04fc8263          	beq	s9,a5,106fc <_ZL11path_tracerRK10GlobalData.constprop.0+0x62c>
   106bc:	00088793          	mv	a5,a7
		if(stack[j - 1].t >= entry.t) break;
   106c0:	0007a787          	flw	fa5,0(a5)
		stack[j] = stack[j - 1];
   106c4:	00070593          	mv	a1,a4
	for(; j != min; --j)
   106c8:	ff878893          	add	a7,a5,-8
		if(stack[j - 1].t >= entry.t) break;
   106cc:	a0f686d3          	fle.s	a3,fa3,fa5
   106d0:	fc068ee3          	beqz	a3,106ac <_ZL11path_tracerRK10GlobalData.constprop.0+0x5dc>
	stack[j] = entry;
   106d4:	04d12c27          	fsw	fa3,88(sp)
   106d8:	05813783          	ld	a5,88(sp)
				if(new_entry.t < hit.t) insert(new_entry, node_stack, node_stack_size++);
   106dc:	00060d93          	mv	s11,a2
	stack[j] = entry;
   106e0:	00f5b023          	sd	a5,0(a1)
			for(uint32_t i = 0; i <= current_entry.data.lst_chld_ofst; ++i)
   106e4:	02050513          	add	a0,a0,32
   106e8:	eea310e3          	bne	t1,a0,105c8 <_ZL11path_tracerRK10GlobalData.constprop.0+0x4f8>
	while(node_stack_size);
   106ec:	060d8463          	beqz	s11,10754 <_ZL11path_tracerRK10GlobalData.constprop.0+0x684>
		if(current_entry.t >= hit.t) return found_hit;
   106f0:	06012507          	flw	fa0,96(sp)
   106f4:	e6dff06f          	j	10560 <_ZL11path_tracerRK10GlobalData.constprop.0+0x490>
   106f8:	0f010813          	add	a6,sp,240
	stack[j] = entry;
   106fc:	04d12c27          	fsw	fa3,88(sp)
   10700:	05813783          	ld	a5,88(sp)
   10704:	00080593          	mv	a1,a6
				if(new_entry.t < hit.t) insert(new_entry, node_stack, node_stack_size++);
   10708:	00060d93          	mv	s11,a2
	stack[j] = entry;
   1070c:	00f5b023          	sd	a5,0(a1)
   10710:	fd5ff06f          	j	106e4 <_ZL11path_tracerRK10GlobalData.constprop.0+0x614>
			for(uint32_t i = 0; i <= current_entry.data.lst_chld_ofst; ++i)
   10714:	000b8b9b          	sext.w	s7,s7
				move_to_stack(node, blas[current_entry.data.fst_chld_ind + i]);
   10718:	00078d13          	mv	s10,a5
			for(uint32_t i = 0; i <= current_entry.data.lst_chld_ofst; ++i)
   1071c:	00000b13          	li	s6,0
   10720:	07810c13          	add	s8,sp,120
				found_hit |= intersect(current_entry.data.fst_chld_ind + i, mesh, ray, hit);
   10724:	000d0513          	mv	a0,s10
   10728:	06010693          	add	a3,sp,96
   1072c:	09010613          	add	a2,sp,144
   10730:	000c0593          	mv	a1,s8
   10734:	00001097          	auipc	ra,0x1
   10738:	5d0080e7          	jalr	1488(ra) # 11d04 <_Z9intersectjRK32TesselationTree1SecondaryRayDataRK3RayR3Hit>
   1073c:	00856433          	or	s0,a0,s0
			for(uint32_t i = 0; i <= current_entry.data.lst_chld_ofst; ++i)
   10740:	001b0b1b          	addw	s6,s6,1
				found_hit |= intersect(current_entry.data.fst_chld_ind + i, mesh, ray, hit);
   10744:	0ff47413          	zext.b	s0,s0
			for(uint32_t i = 0; i <= current_entry.data.lst_chld_ofst; ++i)
   10748:	001d0d1b          	addw	s10,s10,1
   1074c:	fd6bfce3          	bgeu	s7,s6,10724 <_ZL11path_tracerRK10GlobalData.constprop.0+0x654>
	while(node_stack_size);
   10750:	fa0d90e3          	bnez	s11,106f0 <_ZL11path_tracerRK10GlobalData.constprop.0+0x620>
   10754:	000a8c13          	mv	s8,s5
   10758:	00813b03          	ld	s6,8(sp)
   1075c:	01013d03          	ld	s10,16(sp)
   10760:	01813a03          	ld	s4,24(sp)
   10764:	00013a83          	ld	s5,0(sp)
				if(intersect(global_data, last_patch_index, last_ray, ray, hit))
   10768:	7e040c63          	beqz	s0,10f60 <_ZL11path_tracerRK10GlobalData.constprop.0+0xe90>
					if(i >= global_data.bounces) break;
   1076c:	09402783          	lw	a5,148(zero) # 94 <main-0x1001c>
   10770:	00fb6463          	bltu	s6,a5,10778 <_ZL11path_tracerRK10GlobalData.constprop.0+0x6a8>
   10774:	4440106f          	j	11bb8 <_ZL11path_tracerRK10GlobalData.constprop.0+0x1ae8>
					rtm::uvec3 ni = global_data.ni[hit.id];
   10778:	06c16703          	lwu	a4,108(sp)
   1077c:	0c803603          	ld	a2,200(zero) # c8 <main-0xffe8>
					rtm::vec3 n = rtm::normalize(global_data.normals[ni[0]] * hit.bc[0] + global_data.normals[ni[1]] * hit.bc[1] + global_data.normals[ni[2]] * (1.0f - hit.bc[0] - hit.bc[1])); 
   10780:	0d003683          	ld	a3,208(zero) # d0 <main-0xffe0>
					rtm::uvec3 ni = global_data.ni[hit.id];
   10784:	00171793          	sll	a5,a4,0x1
   10788:	00e787b3          	add	a5,a5,a4
   1078c:	00279793          	sll	a5,a5,0x2
   10790:	00f60633          	add	a2,a2,a5
					rtm::vec3 n = rtm::normalize(global_data.normals[ni[0]] * hit.bc[0] + global_data.normals[ni[1]] * hit.bc[1] + global_data.normals[ni[2]] * (1.0f - hit.bc[0] - hit.bc[1])); 
   10794:	00466783          	lwu	a5,4(a2)
   10798:	00066583          	lwu	a1,0(a2)
   1079c:	06412787          	flw	fa5,100(sp)
   107a0:	00179713          	sll	a4,a5,0x1
   107a4:	00f70733          	add	a4,a4,a5
   107a8:	00271713          	sll	a4,a4,0x2
   107ac:	00e68733          	add	a4,a3,a4
   107b0:	06812687          	flw	fa3,104(sp)
   107b4:	00472607          	flw	fa2,4(a4)
   107b8:	00159793          	sll	a5,a1,0x1
   107bc:	00b787b3          	add	a5,a5,a1
   107c0:	00d7f553          	fadd.s	fa0,fa5,fa3
   107c4:	10c6f653          	fmul.s	fa2,fa3,fa2
   107c8:	00866583          	lwu	a1,8(a2)
   107cc:	00279793          	sll	a5,a5,0x2
   107d0:	00f687b3          	add	a5,a3,a5
	inline float operator[](int i) const { return e[i]; }
   107d4:	0047a587          	flw	fa1,4(a5)
	return vec3(a[0] * b[0], a[1] * b[1], a[2] * b[2]);
   107d8:	00072007          	flw	ft0,0(a4)
   107dc:	2584a707          	flw	fa4,600(s1)
   107e0:	00159613          	sll	a2,a1,0x1
   107e4:	00b60633          	add	a2,a2,a1
   107e8:	08a77753          	fsub.s	fa4,fa4,fa0
	return vec3(a[0] + b[0], a[1] + b[1], a[2] + b[2]);
   107ec:	60b7f5c3          	fmadd.s	fa1,fa5,fa1,fa2
	return vec3(a[0] * b[0], a[1] * b[1], a[2] * b[2]);
   107f0:	1006f053          	fmul.s	ft0,fa3,ft0
   107f4:	00261613          	sll	a2,a2,0x2
   107f8:	00c686b3          	add	a3,a3,a2
   107fc:	00872087          	flw	ft1,8(a4)
	return vec3(a[0] + b[0], a[1] + b[1], a[2] + b[2]);
   10800:	0007a507          	flw	fa0,0(a5)
	inline float operator[](int i) const { return e[i]; }
   10804:	0046a607          	flw	fa2,4(a3)
	return vec3(a[0] * b[0], a[1] * b[1], a[2] * b[2]);
   10808:	1016f6d3          	fmul.s	fa3,fa3,ft1
	return vec3(a[0] + b[0], a[1] + b[1], a[2] + b[2]);
   1080c:	00a7f543          	fmadd.s	fa0,fa5,fa0,ft0
   10810:	58c77643          	fmadd.s	fa2,fa4,fa2,fa1
	inline float operator[](int i) const { return e[i]; }
   10814:	0087a087          	flw	ft1,8(a5)
	return vec3(a[0] + b[0], a[1] + b[1], a[2] + b[2]);
   10818:	0006a587          	flw	fa1,0(a3)
	inline float operator[](int i) const { return e[i]; }
   1081c:	0086a007          	flw	ft0,8(a3)
	return vec3(a[0] + b[0], a[1] + b[1], a[2] + b[2]);
   10820:	6817f7c3          	fmadd.s	fa5,fa5,ft1,fa3
   10824:	50b776c3          	fmadd.s	fa3,fa4,fa1,fa0
	return a[0] * b[0] + a[1] * b[1] + a[2] * b[2];
   10828:	10c675d3          	fmul.s	fa1,fa2,fa2
	return vec3(a[0] + b[0], a[1] + b[1], a[2] + b[2]);
   1082c:	78077743          	fmadd.s	fa4,fa4,ft0,fa5
	return a[0] * b[0] + a[1] * b[1] + a[2] * b[2];
   10830:	58d6f5c3          	fmadd.s	fa1,fa3,fa3,fa1
   10834:	58e775c3          	fmadd.s	fa1,fa4,fa4,fa1
	asm volatile ("fsqrt.s %[rd], %[rs1]\n\t" : [rd] "=f" (output) : [rs1] "f" (input));
   10838:	5805f5d3          	fsqrt.s	fa1,fa1
	return vec3(a[0] / b[0], a[1] / b[1], a[2] / b[2]);
   1083c:	18b67653          	fdiv.s	fa2,fa2,fa1
	if(dot <= -EPS_NORMAL_CORRECTION)
   10840:	0001a7b7          	lui	a5,0x1a
   10844:	18b6f6d3          	fdiv.s	fa3,fa3,fa1
	return a[0] * b[0] + a[1] * b[1] + a[2] * b[2];
   10848:	114677d3          	fmul.s	fa5,fa2,fs4
	return vec3(a[0] / b[0], a[1] / b[1], a[2] / b[2]);
   1084c:	18b77753          	fdiv.s	fa4,fa4,fa1
	return a[0] * b[0] + a[1] * b[1] + a[2] * b[2];
   10850:	7936f7c3          	fmadd.s	fa5,fa3,fs3,fa5
   10854:	2807a587          	flw	fa1,640(a5) # 1a280 <__DATA_BEGIN__+0x30>
   10858:	799777c3          	fmadd.s	fa5,fa4,fs9,fa5
   1085c:	a0b787d3          	fle.s	a5,fa5,fa1
   10860:	06079663          	bnez	a5,108cc <_ZL11path_tracerRK10GlobalData.constprop.0+0x7fc>
   10864:	0001a7b7          	lui	a5,0x1a
	return vec3(a[0] - b[0], a[1] - b[1], a[2] - b[2]);
   10868:	68f9f6cb          	fnmsub.s	fa3,fs3,fa5,fa3
   1086c:	60fa764b          	fnmsub.s	fa2,fs4,fa5,fa2
   10870:	2847a587          	flw	fa1,644(a5) # 1a284 <__DATA_BEGIN__+0x34>
   10874:	70fcf7cb          	fnmsub.s	fa5,fs9,fa5,fa4
   10878:	5805f5d3          	fsqrt.s	fa1,fa1
	return a[0] * b[0] + a[1] * b[1] + a[2] * b[2];
   1087c:	10c67753          	fmul.s	fa4,fa2,fa2
   10880:	70d6f743          	fmadd.s	fa4,fa3,fa3,fa4
   10884:	70f7f743          	fmadd.s	fa4,fa5,fa5,fa4
   10888:	58077753          	fsqrt.s	fa4,fa4
		n += (numer * denom) * tmp;
   1088c:	10e5f5d3          	fmul.s	fa1,fa1,fa4
	e[0] += v[0];
   10890:	0001a7b7          	lui	a5,0x1a
   10894:	2887a707          	flw	fa4,648(a5) # 1a288 <__DATA_BEGIN__+0x38>
	return vec3(a[0] * b[0], a[1] * b[1], a[2] * b[2]);
   10898:	10b67653          	fmul.s	fa2,fa2,fa1
   1089c:	10b7f7d3          	fmul.s	fa5,fa5,fa1
   108a0:	10b6f6d3          	fmul.s	fa3,fa3,fa1
	e[1] += v[1];
   108a4:	60ea7643          	fmadd.s	fa2,fs4,fa4,fa2
	e[0] += v[0];
   108a8:	68e9f6c3          	fmadd.s	fa3,fs3,fa4,fa3
	e[2] += v[2];
   108ac:	78ecf743          	fmadd.s	fa4,fs9,fa4,fa5
	return a[0] * b[0] + a[1] * b[1] + a[2] * b[2];
   108b0:	10c677d3          	fmul.s	fa5,fa2,fa2
   108b4:	78d6f7c3          	fmadd.s	fa5,fa3,fa3,fa5
   108b8:	78e777c3          	fmadd.s	fa5,fa4,fa4,fa5
   108bc:	5807f7d3          	fsqrt.s	fa5,fa5
	return vec3(a[0] / b[0], a[1] / b[1], a[2] / b[2]);
   108c0:	18f6f6d3          	fdiv.s	fa3,fa3,fa5
   108c4:	18f67653          	fdiv.s	fa2,fa2,fa5
   108c8:	18f77753          	fdiv.s	fa4,fa4,fa5
   108cc:	00196637          	lui	a2,0x196
   108d0:	60d6061b          	addw	a2,a2,1549 # 19660d <__global_pointer$+0x17bbbd>
   108d4:	02ca873b          	mulw	a4,s5,a2
					ray.o += ray.d * hit.t;
   108d8:	06012007          	flw	ft0,96(sp)
		uint32_t bits = u & 0x007FFFFFu | 0x3F800000u;
   108dc:	008007b7          	lui	a5,0x800
   108e0:	fff78793          	add	a5,a5,-1 # 7fffff <__global_pointer$+0x7e55af>
   108e4:	00faf6b3          	and	a3,s5,a5
	e[0] = v[0];
   108e8:	0d812027          	fsw	fs8,192(sp)
	e[1] = v[1];
   108ec:	0c912227          	fsw	fs1,196(sp)
	e[0] += v[0];
   108f0:	c1307c43          	fmadd.s	fs8,ft0,fs3,fs8
	e[1] += v[1];
   108f4:	494074c3          	fmadd.s	fs1,ft0,fs4,fs1
	e[2] = v[2];
   108f8:	0d712427          	fsw	fs7,200(sp)
   108fc:	3f8005b7          	lui	a1,0x3f800
	e[2] += v[2];
   10900:	b9907bc3          	fmadd.s	fs7,ft0,fs9,fs7
		return *((float*)(&bits)) - 1.0f;
   10904:	00b6e6b3          	or	a3,a3,a1
#pragma once
#include "stdafx.hpp"

#include "rtm.hpp"

struct Ray
   10908:	2584a787          	flw	fa5,600(s1)
   1090c:	25092107          	flw	ft2,592(s2)
   10910:	2789a587          	flw	fa1,632(s3)
   10914:	0b012507          	flw	fa0,176(sp)
   10918:	0b412087          	flw	ft1,180(sp)
   1091c:	f00681d3          	fmv.w.x	ft3,a3
		return 1664525 * u + 1013904223;
   10920:	3c6efab7          	lui	s5,0x3c6ef
   10924:	35fa8a9b          	addw	s5,s5,863 # 3c6ef35f <__global_pointer$+0x3c6d490f>
		return *((float*)(&bits)) - 1.0f;
   10928:	08f1f2d3          	fsub.s	ft5,ft3,fa5
					last_patch_index = hit.patch_index;
   1092c:	07012503          	lw	a0,112(sp)
   10930:	0c212627          	fsw	ft2,204(sp)
	e[0] = v[0];
   10934:	0d312827          	fsw	fs3,208(sp)
	e[1] = v[1];
   10938:	0d412a27          	fsw	fs4,212(sp)
	e[2] = v[2];
   1093c:	0d912c27          	fsw	fs9,216(sp)
   10940:	0cb12e27          	fsw	fa1,220(sp)
   10944:	0ea12027          	fsw	fa0,224(sp)
   10948:	0e112227          	fsw	ft1,228(sp)
   1094c:	0ef12427          	fsw	fa5,232(sp)
	e[0] += v[0];
   10950:	09812827          	fsw	fs8,144(sp)
	e[1] += v[1];
   10954:	08912a27          	fsw	fs1,148(sp)
	e[2] += v[2];
   10958:	09712c27          	fsw	fs7,152(sp)
		return 1664525 * u + 1013904223;
   1095c:	0157073b          	addw	a4,a4,s5
   10960:	5802f2d3          	fsqrt.s	ft5,ft5
		uint32_t bits = u & 0x007FFFFFu | 0x3F800000u;
   10964:	00e7f7b3          	and	a5,a5,a4
		return *((float*)(&bits)) - 1.0f;
   10968:	00b7e7b3          	or	a5,a5,a1
   1096c:	f00785d3          	fmv.w.x	fa1,a5

#if 1
inline rtm::vec2 uniform_sample_circle(RNG& rng)
{
	float r = fast_sqrtf(rng.randf());
	float theta = 2.0f * PI * rng.randf();
   10970:	0001a5b7          	lui	a1,0x1a
   10974:	28c5a187          	flw	ft3,652(a1) # 1a28c <__DATA_BEGIN__+0x3c>
   10978:	08f5f7d3          	fsub.s	fa5,fa1,fa5
	uint32_t quad = static_cast<uint>(x * (2.0f / PI)); // Get quadrant # (0 to 3)
   1097c:	0001a6b7          	lui	a3,0x1a
   10980:	2906a107          	flw	ft2,656(a3) # 1a290 <__DATA_BEGIN__+0x40>
		return 1664525 * u + 1013904223;
   10984:	02c7073b          	mulw	a4,a4,a2
	switch (quad)
   10988:	00200613          	li	a2,2
	float theta = 2.0f * PI * rng.randf();
   1098c:	1037f7d3          	fmul.s	fa5,fa5,ft3
  abs(double __x)
  { return __builtin_fabs(__x); }

  inline _GLIBCXX_CONSTEXPR float
  abs(float __x)
  { return __builtin_fabsf(__x); }
   10990:	20f7a5d3          	fabs.s	fa1,fa5
	uint32_t quad = static_cast<uint>(x * (2.0f / PI)); // Get quadrant # (0 to 3)
   10994:	1025f153          	fmul.s	ft2,fa1,ft2
   10998:	01570abb          	addw	s5,a4,s5
   1099c:	c01117d3          	fcvt.wu.s	a5,ft2,rtz
   109a0:	0007879b          	sext.w	a5,a5
	switch (quad)
   109a4:	00c79463          	bne	a5,a2,109ac <_ZL11path_tracerRK10GlobalData.constprop.0+0x8dc>
   109a8:	1200106f          	j	11ac8 <_ZL11path_tracerRK10GlobalData.constprop.0+0x19f8>
   109ac:	44f664e3          	bltu	a2,a5,115f4 <_ZL11path_tracerRK10GlobalData.constprop.0+0x1524>
   109b0:	00079463          	bnez	a5,109b8 <_ZL11path_tracerRK10GlobalData.constprop.0+0x8e8>
   109b4:	1b80106f          	j	11b6c <_ZL11path_tracerRK10GlobalData.constprop.0+0x1a9c>
	case 1: return -cos_32s(PI - x);
   109b8:	0001a7b7          	lui	a5,0x1a
   109bc:	2a07a107          	flw	ft2,672(a5) # 1a2a0 <__DATA_BEGIN__+0x50>
	return (c1 + x_sq * (c2 + c3 * x_sq));
   109c0:	0001a7b7          	lui	a5,0x1a
   109c4:	29c7a187          	flw	ft3,668(a5) # 1a29c <__DATA_BEGIN__+0x4c>
	case 1: return -cos_32s(PI - x);
   109c8:	08b17153          	fsub.s	ft2,ft2,fa1
	return (c1 + x_sq * (c2 + c3 * x_sq));
   109cc:	0001a7b7          	lui	a5,0x1a
   109d0:	2947a207          	flw	ft4,660(a5) # 1a294 <__DATA_BEGIN__+0x44>
   109d4:	0001a7b7          	lui	a5,0x1a
   109d8:	2987a587          	flw	fa1,664(a5) # 1a298 <__DATA_BEGIN__+0x48>
	float x_sq = x * x;
   109dc:	10217153          	fmul.s	ft2,ft2,ft2
	return (c1 + x_sq * (c2 + c3 * x_sq));
   109e0:	58417243          	fmadd.s	ft4,ft2,ft4,fa1
   109e4:	182275c3          	fmadd.s	fa1,ft4,ft2,ft3
	case 1: return -cos_32s(PI - x);
   109e8:	1822724f          	fnmadd.s	ft4,ft4,ft2,ft3
}


inline float dot(const vec2& a, const vec2 &b)
{
	return a.e[0] * b.e[0] + a.e[1] * b.e[1];
   109ec:	10b5f1d3          	fmul.s	ft3,fa1,fa1
inline static float sin_32(float x) { return cos_32(x - PI / 2.0f);}
   109f0:	0001a7b7          	lui	a5,0x1a
   109f4:	2a47a587          	flw	fa1,676(a5) # 1a2a4 <__DATA_BEGIN__+0x54>
	uint32_t quad = static_cast<uint>(x * (2.0f / PI)); // Get quadrant # (0 to 3)
   109f8:	2906a107          	flw	ft2,656(a3)
	switch (quad)
   109fc:	00200713          	li	a4,2
inline static float sin_32(float x) { return cos_32(x - PI / 2.0f);}
   10a00:	08b7f7d3          	fsub.s	fa5,fa5,fa1
   10a04:	20f7a5d3          	fabs.s	fa1,fa5
	uint32_t quad = static_cast<uint>(x * (2.0f / PI)); // Get quadrant # (0 to 3)
   10a08:	1025f153          	fmul.s	ft2,fa1,ft2
   10a0c:	c01117d3          	fcvt.wu.s	a5,ft2,rtz
   10a10:	0007879b          	sext.w	a5,a5
	switch (quad)
   10a14:	00e79463          	bne	a5,a4,10a1c <_ZL11path_tracerRK10GlobalData.constprop.0+0x94c>
   10a18:	1180106f          	j	11b30 <_ZL11path_tracerRK10GlobalData.constprop.0+0x1a60>
   10a1c:	40f768e3          	bltu	a4,a5,1162c <_ZL11path_tracerRK10GlobalData.constprop.0+0x155c>
   10a20:	00079463          	bnez	a5,10a28 <_ZL11path_tracerRK10GlobalData.constprop.0+0x958>
   10a24:	0e00106f          	j	11b04 <_ZL11path_tracerRK10GlobalData.constprop.0+0x1a34>
	case 1: return -cos_32s(PI - x);
   10a28:	0001a7b7          	lui	a5,0x1a
   10a2c:	2a07a787          	flw	fa5,672(a5) # 1a2a0 <__DATA_BEGIN__+0x50>
	return (c1 + x_sq * (c2 + c3 * x_sq));
   10a30:	0001a7b7          	lui	a5,0x1a
   10a34:	29c7a307          	flw	ft6,668(a5) # 1a29c <__DATA_BEGIN__+0x4c>
	case 1: return -cos_32s(PI - x);
   10a38:	08b7f5d3          	fsub.s	fa1,fa5,fa1
	return (c1 + x_sq * (c2 + c3 * x_sq));
   10a3c:	0001a7b7          	lui	a5,0x1a
   10a40:	2947a787          	flw	fa5,660(a5) # 1a294 <__DATA_BEGIN__+0x44>
   10a44:	0001a7b7          	lui	a5,0x1a
   10a48:	2987a107          	flw	ft2,664(a5) # 1a298 <__DATA_BEGIN__+0x48>
	float x_sq = x * x;
   10a4c:	10b5f5d3          	fmul.s	fa1,fa1,fa1
	return (c1 + x_sq * (c2 + c3 * x_sq));
   10a50:	10f5f7c3          	fmadd.s	fa5,fa1,fa5,ft2
   10a54:	30b7f143          	fmadd.s	ft2,fa5,fa1,ft6
	case 1: return -cos_32s(PI - x);
   10a58:	30b7f7cf          	fnmadd.s	fa5,fa5,fa1,ft6
   10a5c:	182171c3          	fmadd.s	ft3,ft2,ft2,ft3
   10a60:	5801f5d3          	fsqrt.s	fa1,ft3
	return vec2(a.e[0] / b.e[0], a.e[1] / b.e[1]);
   10a64:	18b7f7d3          	fdiv.s	fa5,fa5,fa1
}

inline rtm::vec3 cosine_sample_hemisphere(RNG& rng)
{
	rtm::vec2 sample = uniform_sample_circle(rng);
	return rtm::vec3(sample.x, sample.y, fast_sqrtf(1.0f - rtm::length2(sample)));
   10a68:	2584a307          	flw	ft6,600(s1)
   10a6c:	18b27253          	fdiv.s	ft4,ft4,fa1
	return vec2(a.e[0] * b.e[0], a.e[1] * b.e[1]);
   10a70:	1057f1d3          	fmul.s	ft3,fa5,ft5
	return a.e[0] * b.e[0] + a.e[1] * b.e[1];
   10a74:	1031f7d3          	fmul.s	fa5,ft3,ft3
	return vec2(a.e[0] * b.e[0], a.e[1] * b.e[1]);
   10a78:	10527253          	fmul.s	ft4,ft4,ft5
	return a.e[0] * b.e[0] + a.e[1] * b.e[1];
   10a7c:	784272c3          	fmadd.s	ft5,ft4,ft4,fa5
   10a80:	085372d3          	fsub.s	ft5,ft6,ft5
   10a84:	5802f2d3          	fsqrt.s	ft5,ft5
	return a[0] * b[0] + a[1] * b[1] + a[2] * b[2];
   10a88:	10c677d3          	fmul.s	fa5,fa2,fa2
   10a8c:	78d6f7c3          	fmadd.s	fa5,fa3,fa3,fa5
   10a90:	78e777c3          	fmadd.s	fa5,fa4,fa4,fa5
   10a94:	5807f7d3          	fsqrt.s	fa5,fa5
	return vec3(a[0] / b[0], a[1] / b[1], a[2] / b[2]);
   10a98:	18f6f5d3          	fdiv.s	fa1,fa3,fa5
	if (std::abs(normalized[0]) < 0.707106f)
   10a9c:	0001a7b7          	lui	a5,0x1a
   10aa0:	2a87a387          	flw	ft7,680(a5) # 1a2a8 <__DATA_BEGIN__+0x58>
   10aa4:	20b5a853          	fabs.s	fa6,fa1
   10aa8:	18f67153          	fdiv.s	ft2,fa2,fa5
   10aac:	a07817d3          	flt.s	a5,fa6,ft7
   10ab0:	18f777d3          	fdiv.s	fa5,fa4,fa5
   10ab4:	640784e3          	beqz	a5,118fc <_ZL11path_tracerRK10GlobalData.constprop.0+0x182c>
	return vec3(a[0] * b[0], a[1] * b[1], a[2] * b[2]);
   10ab8:	10f5f7d3          	fmul.s	fa5,fa1,fa5
   10abc:	1025f153          	fmul.s	ft2,fa1,ft2
	return vec3(a[0] - b[0], a[1] - b[1], a[2] - b[2]);
   10ac0:	30b5f5cb          	fnmsub.s	fa1,fa1,fa1,ft6
	return a[0] * b[0] + a[1] * b[1] + a[2] * b[2];
   10ac4:	10f7f353          	fmul.s	ft6,fa5,fa5
   10ac8:	30217343          	fmadd.s	ft6,ft2,ft2,ft6
   10acc:	30b5f343          	fmadd.s	ft6,fa1,fa1,ft6
   10ad0:	58037353          	fsqrt.s	ft6,ft6
	return vec3(a[0] - b[0], a[1] - b[1], a[2] - b[2]);
   10ad4:	20211153          	fneg.s	ft2,ft2
   10ad8:	20f797d3          	fneg.s	fa5,fa5
	return vec3(a[0] / b[0], a[1] / b[1], a[2] / b[2]);
   10adc:	1865f5d3          	fdiv.s	fa1,fa1,ft6
   10ae0:	18617153          	fdiv.s	ft2,ft2,ft6
   10ae4:	1867f7d3          	fdiv.s	fa5,fa5,ft6
}

inline vec3 cross(const vec3 & a, const vec3 &b)
{
	return vec3(a[1] * b[2] - a[2] * b[1],
		(-(a[0] * b[2] - a[2] * b[0])),
   10ae8:	10f6f3d3          	fmul.s	ft7,fa3,fa5
	return vec3(a[0] * b[0], a[1] * b[1], a[2] * b[2]);
   10aec:	10567853          	fmul.s	fa6,fa2,ft5
	return vec3(a[1] * b[2] - a[2] * b[1],
   10af0:	10277353          	fmul.s	ft6,fa4,ft2
	return vec3(a[0] * b[0], a[1] * b[1], a[2] * b[2]);
   10af4:	1056fe53          	fmul.s	ft8,fa3,ft5
		a[0] * b[1] - a[1] * b[0]);
   10af8:	10b678d3          	fmul.s	fa7,fa2,fa1
	return vec3(a[1] * b[2] - a[2] * b[1],
   10afc:	38b773c7          	fmsub.s	ft7,fa4,fa1,ft7
   10b00:	80417843          	fmadd.s	fa6,ft2,ft4,fa6
   10b04:	30f67347          	fmsub.s	ft6,fa2,fa5,ft6
   10b08:	e0b275c3          	fmadd.s	fa1,ft4,fa1,ft8
	return vec3(a[0] * b[0], a[1] * b[1], a[2] * b[2]);
   10b0c:	105772d3          	fmul.s	ft5,fa4,ft5
	return vec3(a[1] * b[2] - a[2] * b[1],
   10b10:	8826f147          	fmsub.s	ft2,fa3,ft2,fa7
	return vec3(a[0] + b[0], a[1] + b[1], a[2] + b[2]);
   10b14:	8033f3c3          	fmadd.s	ft7,ft7,ft3,fa6
   10b18:	58337343          	fmadd.s	ft6,ft6,ft3,fa1
   10b1c:	2847f7c3          	fmadd.s	fa5,fa5,ft4,ft5
	return a[0] * b[0] + a[1] * b[1] + a[2] * b[2];
   10b20:	1073f5d3          	fmul.s	fa1,ft7,ft7
	return vec3(a[0] + b[0], a[1] + b[1], a[2] + b[2]);
   10b24:	78317143          	fmadd.s	ft2,ft2,ft3,fa5
	return a[0] * b[0] + a[1] * b[1] + a[2] * b[2];
   10b28:	586377c3          	fmadd.s	fa5,ft6,ft6,fa1
   10b2c:	782177c3          	fmadd.s	fa5,ft2,ft2,fa5
   10b30:	5807f7d3          	fsqrt.s	fa5,fa5
	return vec3(a[0] / b[0], a[1] / b[1], a[2] / b[2]);
   10b34:	18f3fa53          	fdiv.s	fs4,ft7,fa5
					ray.radius += ray.drdt * hit.t;
   10b38:	08057543          	fmadd.s	fa0,fa0,ft0,ft1
					ray.drdt = fast_sqrtf(3.1415926f * 2.0f / (glm::dot(ray.d, n) * samples));
   10b3c:	0001a7b7          	lui	a5,0x1a
					ray.radius += ray.drdt * hit.t;
   10b40:	0aa12a27          	fsw	fa0,180(sp)
   10b44:	18f379d3          	fdiv.s	fs3,ft6,fa5
	return a[0] * b[0] + a[1] * b[1] + a[2] * b[2];
   10b48:	11467653          	fmul.s	fa2,fa2,fs4
	e[1] = v[1];
   10b4c:	0b412227          	fsw	fs4,164(sp)
	return vec3(a[0] / b[0], a[1] / b[1], a[2] / b[2]);
   10b50:	18f17cd3          	fdiv.s	fs9,ft2,fa5
	return a[0] * b[0] + a[1] * b[1] + a[2] * b[2];
   10b54:	6136f6c3          	fmadd.s	fa3,fa3,fs3,fa2
					ray.drdt = fast_sqrtf(3.1415926f * 2.0f / (glm::dot(ray.d, n) * samples));
   10b58:	2ac7a787          	flw	fa5,684(a5) # 1a2ac <__DATA_BEGIN__+0x5c>
	e[0] = v[0];
   10b5c:	0b312027          	fsw	fs3,160(sp)
	return a[0] * b[0] + a[1] * b[1] + a[2] * b[2];
   10b60:	69977743          	fmadd.s	fa4,fa4,fs9,fa3
	e[2] = v[2];
   10b64:	0b912427          	fsw	fs9,168(sp)
   10b68:	18e7f7d3          	fdiv.s	fa5,fa5,fa4
   10b6c:	5807f7d3          	fsqrt.s	fa5,fa5
	e[0] *= v[0];
   10b70:	0001a7b7          	lui	a5,0x1a
   10b74:	0af12827          	fsw	fa5,176(sp)
   10b78:	2b07a787          	flw	fa5,688(a5) # 1a2b0 <__DATA_BEGIN__+0x60>
				 hit.t = ray.t_max;
   10b7c:	0001a737          	lui	a4,0x1a
	switch(global_data.config)
   10b80:	09802783          	lw	a5,152(zero) # 98 <main-0x10018>
   10b84:	10fb7b53          	fmul.s	fs6,fs6,fa5
   10b88:	27872787          	flw	fa5,632(a4) # 1a278 <__DATA_BEGIN__+0x28>
   10b8c:	00200713          	li	a4,2
			for(uint i = 0; true; ++i)
   10b90:	001b0b1b          	addw	s6,s6,1
				 hit.t = ray.t_max;
   10b94:	06f12027          	fsw	fa5,96(sp)
   10b98:	f8e79c63          	bne	a5,a4,10330 <_ZL11path_tracerRK10GlobalData.constprop.0+0x260>
	return vec3(a[0] / b[0], a[1] / b[1], a[2] / b[2]);
   10b9c:	0001a8b7          	lui	a7,0x1a
   10ba0:	2588a787          	flw	fa5,600(a7) # 1a258 <__DATA_BEGIN__+0x8>
			return intersect(global_data.blas, global_data.mesh, ray, hit); //BVH
   10ba4:	0a003583          	ld	a1,160(zero) # a0 <main-0x10010>
   10ba8:	2588a587          	flw	fa1,600(a7)
   10bac:	25092107          	flw	ft2,592(s2)
		uint64_t r = ((uint64_t*)&src)[i];
   10bb0:	0005b683          	ld	a3,0(a1)
   10bb4:	0085b703          	ld	a4,8(a1)
   10bb8:	1937f0d3          	fdiv.s	ft1,fa5,fs3
	return vec3(a[0] - b[0], a[1] - b[1], a[2] - b[2]);
   10bbc:	00068793          	mv	a5,a3
   10bc0:	0206d693          	srl	a3,a3,0x20
   10bc4:	f0068753          	fmv.w.x	fa4,a3
   10bc8:	02075813          	srl	a6,a4,0x20
   10bcc:	f00787d3          	fmv.w.x	fa5,a5
   10bd0:	089776d3          	fsub.s	fa3,fa4,fs1
   10bd4:	f0080753          	fmv.w.x	fa4,a6
   10bd8:	0987f7d3          	fsub.s	fa5,fa5,fs8
   10bdc:	0105b603          	ld	a2,16(a1)
   10be0:	09877053          	fsub.s	ft0,fa4,fs8
		((uint64_t*)&dst)[i] = r;
   10be4:	0185b783          	ld	a5,24(a1)
   10be8:	f0060753          	fmv.w.x	fa4,a2
   10bec:	02065613          	srl	a2,a2,0x20
   10bf0:	f0060653          	fmv.w.x	fa2,a2
   10bf4:	08977553          	fsub.s	fa0,fa4,fs1
   10bf8:	f0070753          	fmv.w.x	fa4,a4
   10bfc:	09767653          	fsub.s	fa2,fa2,fs7
   10c00:	04fc3c23          	sd	a5,88(s8)
   10c04:	09777753          	fsub.s	fa4,fa4,fs7
	return vec3(a[0] / b[0], a[1] / b[1], a[2] / b[2]);
   10c08:	1945f953          	fdiv.s	fs2,fa1,fs4
	return vec3(a[0] * b[0], a[1] * b[1], a[2] * b[2]);
   10c0c:	10107053          	fmul.s	ft0,ft0,ft1
   10c10:	1017f7d3          	fmul.s	fa5,fa5,ft1
	if (tmin > tmax) return ray.t_max;//no hit || behind
   10c14:	0001a7b7          	lui	a5,0x1a
   10c18:	280785d3          	fmin.s	fa1,fa5,ft0
   10c1c:	280797d3          	fmax.s	fa5,fa5,ft0
	return vec3(a[0] / b[0], a[1] / b[1], a[2] / b[2]);
   10c20:	2588a007          	flw	ft0,600(a7)
   10c24:	199078d3          	fdiv.s	fa7,ft0,fs9
	return vec3(a[0] * b[0], a[1] * b[1], a[2] * b[2]);
   10c28:	1126f6d3          	fmul.s	fa3,fa3,fs2
   10c2c:	11257553          	fmul.s	fa0,fa0,fs2
   10c30:	28a68053          	fmin.s	ft0,fa3,fa0
   10c34:	28a696d3          	fmax.s	fa3,fa3,fa0
   10c38:	280595d3          	fmax.s	fa1,fa1,ft0
   10c3c:	28d787d3          	fmin.s	fa5,fa5,fa3
   10c40:	2787a687          	flw	fa3,632(a5) # 1a278 <__DATA_BEGIN__+0x28>
   10c44:	282595d3          	fmax.s	fa1,fa1,ft2
   10c48:	28d787d3          	fmin.s	fa5,fa5,fa3
   10c4c:	11177753          	fmul.s	fa4,fa4,fa7
   10c50:	111676d3          	fmul.s	fa3,fa2,fa7
	float tmin = std::max(std::max(tminv.x, tminv.y), std::max(tminv.z, ray.t_min));
   10c54:	28d70653          	fmin.s	fa2,fa4,fa3
	if (tmin > tmax) return ray.t_max;//no hit || behind
   10c58:	28d71753          	fmax.s	fa4,fa4,fa3
   10c5c:	28c595d3          	fmax.s	fa1,fa1,fa2
   10c60:	28e787d3          	fmin.s	fa5,fa5,fa4
   10c64:	a0b797d3          	flt.s	a5,fa5,fa1
   10c68:	00078663          	beqz	a5,10c74 <_ZL11path_tracerRK10GlobalData.constprop.0+0xba4>
   10c6c:	0001a7b7          	lui	a5,0x1a
   10c70:	2787a587          	flw	fa1,632(a5) # 1a278 <__DATA_BEGIN__+0x28>
	node_stack[0].data = root_node.data;
   10c74:	2789a787          	flw	fa5,632(s3)
   10c78:	058c2783          	lw	a5,88(s8)
   10c7c:	06c12603          	lw	a2,108(sp)
   10c80:	00f12c27          	fsw	fa5,24(sp)
   10c84:	06412787          	flw	fa5,100(sp)
	if(gn_dot_d > 0.0f) bc = -bc;
   10c88:	f0000453          	fmv.w.x	fs0,zero
   10c8c:	21188853          	fmv.s	fa6,fa7
   10c90:	02f12427          	fsw	fa5,40(sp)
   10c94:	06812787          	flw	fa5,104(sp)
   10c98:	21398d53          	fmv.s	fs10,fs3
   10c9c:	214a0fd3          	fmv.s	ft11,fs4
   10ca0:	02f12227          	fsw	fa5,36(sp)
	node_stack[0].t = intersect(root_node.aabb, ray, inv_d);
   10ca4:	0eb12827          	fsw	fa1,240(sp)
	node_stack[0].data = root_node.data;
   10ca8:	0ef12a23          	sw	a5,244(sp)
	bool found_hit = false;
   10cac:	00000413          	li	s0,0
	uint32_t node_stack_size = 1u;
   10cb0:	00100693          	li	a3,1
   10cb4:	02058813          	add	a6,a1,32
   10cb8:	0f010513          	add	a0,sp,240
		const NodeStackEntry current_entry = node_stack[--node_stack_size];
   10cbc:	fff6869b          	addw	a3,a3,-1
   10cc0:	02069713          	sll	a4,a3,0x20
   10cc4:	01d75793          	srl	a5,a4,0x1d
   10cc8:	43078793          	add	a5,a5,1072
   10ccc:	05010713          	add	a4,sp,80
   10cd0:	00e787b3          	add	a5,a5,a4
   10cd4:	c707b703          	ld	a4,-912(a5)
		if(current_entry.t >= hit.t) return found_hit;
   10cd8:	01812787          	flw	fa5,24(sp)
   10cdc:	f0070753          	fmv.w.x	fa4,a4
		const NodeStackEntry current_entry = node_stack[--node_stack_size];
   10ce0:	04e13c23          	sd	a4,88(sp)
		if(current_entry.t >= hit.t) return found_hit;
   10ce4:	a0e787d3          	fle.s	a5,fa5,fa4
   10ce8:	24079863          	bnez	a5,10f38 <_ZL11path_tracerRK10GlobalData.constprop.0+0xe68>
		if(!current_entry.data.is_leaf)
   10cec:	05c12783          	lw	a5,92(sp)
			for(uint32_t i = 0; i <= current_entry.data.lst_chld_ofst; ++i)
   10cf0:	02175e93          	srl	t4,a4,0x21
   10cf4:	007efe93          	and	t4,t4,7
		if(!current_entry.data.is_leaf)
   10cf8:	0017f793          	and	a5,a5,1
				found_hit |= intersect(current_entry.data.fst_chld_ind + i, mesh, ray, hit);
   10cfc:	02475713          	srl	a4,a4,0x24
		if(!current_entry.data.is_leaf)
   10d00:	44078ce3          	beqz	a5,11958 <_ZL11path_tracerRK10GlobalData.constprop.0+0x1888>
			for(uint32_t i = 0; i <= current_entry.data.lst_chld_ofst; ++i)
   10d04:	0a803e03          	ld	t3,168(zero) # a8 <main-0x10008>
   10d08:	00171793          	sll	a5,a4,0x1
   10d0c:	00e787b3          	add	a5,a5,a4
   10d10:	00279793          	sll	a5,a5,0x2
   10d14:	0b003f03          	ld	t5,176(zero) # b0 <main-0x10000>
   10d18:	00fe0e33          	add	t3,t3,a5
   10d1c:	00ee8eb3          	add	t4,t4,a4
   10d20:	03612627          	fsw	fs6,44(sp)
   10d24:	02112827          	fsw	ft1,48(sp)
   10d28:	03212a27          	fsw	fs2,52(sp)
   10d2c:	03012c27          	fsw	fa6,56(sp)
   10d30:	0080006f          	j	10d38 <_ZL11path_tracerRK10GlobalData.constprop.0+0xc68>
   10d34:	00078713          	mv	a4,a5
	const Triangle tri(mesh.vertices[vi[0]], mesh.vertices[vi[1]], mesh.vertices[vi[2]]);
   10d38:	000e6383          	lwu	t2,0(t3)
   10d3c:	004e6283          	lwu	t0,4(t3)
   10d40:	008e6f83          	lwu	t6,8(t3)
   10d44:	00139313          	sll	t1,t2,0x1
   10d48:	00129793          	sll	a5,t0,0x1
   10d4c:	001f9893          	sll	a7,t6,0x1
   10d50:	00730333          	add	t1,t1,t2
   10d54:	005787b3          	add	a5,a5,t0
   10d58:	01f888b3          	add	a7,a7,t6
   10d5c:	00231313          	sll	t1,t1,0x2
   10d60:	00279793          	sll	a5,a5,0x2
   10d64:	00289893          	sll	a7,a7,0x2
   10d68:	00ff07b3          	add	a5,t5,a5
   10d6c:	006f0333          	add	t1,t5,t1
   10d70:	011f08b3          	add	a7,t5,a7
	inline float operator[](int i) const { return e[i]; }
   10d74:	0088ae87          	flw	ft9,8(a7)
   10d78:	00032587          	flw	fa1,0(t1)
   10d7c:	00832687          	flw	fa3,8(t1)
   10d80:	0007a287          	flw	ft5,0(a5)
   10d84:	0008a087          	flw	ft1,0(a7)
	return vec3(a[0] - b[0], a[1] - b[1], a[2] - b[2]);
   10d88:	08def853          	fsub.s	fa6,ft9,fa3
   10d8c:	08b2f653          	fsub.s	fa2,ft5,fa1
	inline float operator[](int i) const { return e[i]; }
   10d90:	0087a787          	flw	fa5,8(a5)
   10d94:	0048ab07          	flw	fs6,4(a7)
	return vec3(a[0] - b[0], a[1] - b[1], a[2] - b[2]);
   10d98:	08b0f153          	fsub.s	ft2,ft1,fa1
   10d9c:	08d7f553          	fsub.s	fa0,fa5,fa3
	inline float operator[](int i) const { return e[i]; }
   10da0:	00432707          	flw	fa4,4(t1)
		(-(a[0] * b[2] - a[2] * b[0])),
   10da4:	11067f53          	fmul.s	ft10,fa2,fa6
	return vec3(a[0] - b[0], a[1] - b[1], a[2] - b[2]);
   10da8:	0850f1d3          	fsub.s	ft3,ft1,ft5
   10dac:	08eb7a53          	fsub.s	fs4,fs6,fa4
   10db0:	0815f953          	fsub.s	fs2,fa1,ft1
   10db4:	0980f0d3          	fsub.s	ft1,ft1,fs8
	return vec3(a[1] * b[2] - a[2] * b[1],
   10db8:	f0257f47          	fmsub.s	ft10,fa0,ft2,ft10
	inline float operator[](int i) const { return e[i]; }
   10dbc:	0047a007          	flw	ft0,4(a5)
	return vec3(a[0] - b[0], a[1] - b[1], a[2] - b[2]);
   10dc0:	0977fe53          	fsub.s	ft8,fa5,fs7
   10dc4:	0976f3d3          	fsub.s	ft7,fa3,fs7
   10dc8:	00312027          	fsw	ft3,0(sp)
   10dcc:	097ef1d3          	fsub.s	ft3,ft9,fs7
   10dd0:	08e07253          	fsub.s	ft4,ft0,fa4
	return vec3(a[1] * b[2] - a[2] * b[1],
   10dd4:	11457353          	fmul.s	ft6,fa0,fs4
	return vec3(a[0] - b[0], a[1] - b[1], a[2] - b[2]);
   10dd8:	00112427          	fsw	ft1,8(sp)
		(-(a[0] * b[2] - a[2] * b[0])),
   10ddc:	00012087          	flw	ft1,0(sp)
	return vec3(a[1] * b[2] - a[2] * b[1],
   10de0:	21ef08d3          	fmv.s	fa7,ft10
	return vec3(a[0] - b[0], a[1] - b[1], a[2] - b[2]);
   10de4:	08fef7d3          	fsub.s	fa5,ft9,fa5
		(-(a[0] * b[2] - a[2] * b[0])),
   10de8:	11c0fad3          	fmul.s	fs5,ft1,ft8
	return vec3(a[0] - b[0], a[1] - b[1], a[2] - b[2]);
   10dec:	089079d3          	fsub.s	fs3,ft0,fs1
   10df0:	09d6f6d3          	fsub.s	fa3,fa3,ft9
		(-(a[0] * b[2] - a[2] * b[0])),
   10df4:	10397dd3          	fmul.s	fs11,fs2,ft3
	return vec3(a[0] - b[0], a[1] - b[1], a[2] - b[2]);
   10df8:	08977ed3          	fsub.s	ft9,fa4,fs1
		(-(a[0] * b[2] - a[2] * b[0])),
   10dfc:	107670d3          	fmul.s	ft1,fa2,ft7
	return vec3(a[0] - b[0], a[1] - b[1], a[2] - b[2]);
   10e00:	0982f2d3          	fsub.s	ft5,ft5,fs8
   10e04:	0985f5d3          	fsub.s	fa1,fa1,fs8
	return vec3(a[1] * b[2] - a[2] * b[1],
   10e08:	01e12827          	fsw	ft10,16(sp)
	return vec3(a[0] - b[0], a[1] - b[1], a[2] - b[2]);
   10e0c:	089b7f53          	fsub.s	ft10,fs6,fs1
	return vec3(a[1] * b[2] - a[2] * b[1],
   10e10:	31027847          	fmsub.s	fa6,ft4,fa6,ft6
		a[0] * b[1] - a[1] * b[0]);
   10e14:	10227153          	fmul.s	ft2,ft4,ft2
	return a[0] * b[0] + a[1] * b[1] + a[2] * b[2];
   10e18:	11f8f353          	fmul.s	ft6,fa7,ft11
	return vec3(a[1] * b[2] - a[2] * b[1],
   10e1c:	00812887          	flw	fa7,8(sp)
	return vec3(a[0] - b[0], a[1] - b[1], a[2] - b[2]);
   10e20:	080b7053          	fsub.s	ft0,fs6,ft0
   10e24:	09677753          	fsub.s	fa4,fa4,fs6
	return vec3(a[1] * b[2] - a[2] * b[1],
   10e28:	1137fb53          	fmul.s	fs6,fa5,fs3
   10e2c:	a857f7c7          	fmsub.s	fa5,fa5,ft5,fs5
   10e30:	11e6fad3          	fmul.s	fs5,fa3,ft10
   10e34:	d916f6c7          	fmsub.s	fa3,fa3,fa7,fs11
   10e38:	11d57dd3          	fmul.s	fs11,fa0,ft9
   10e3c:	08b57547          	fmsub.s	fa0,fa0,fa1,ft1
   10e40:	11467147          	fmsub.s	ft2,fa2,fs4,ft2
	return a[0] * b[0] + a[1] * b[1] + a[2] * b[2];
   10e44:	31a87343          	fmadd.s	ft6,fa6,fs10,ft6
	return vec3(a[1] * b[2] - a[2] * b[1],
   10e48:	b1c07e47          	fmsub.s	ft8,ft0,ft8,fs6
   10e4c:	a83771c7          	fmsub.s	ft3,fa4,ft3,fs5
   10e50:	d8727dc7          	fmsub.s	fs11,ft4,ft7,fs11
		a[0] * b[1] - a[1] * b[0]);
   10e54:	11177753          	fmul.s	fa4,fa4,fa7
   10e58:	10507053          	fmul.s	ft0,ft0,ft5
	return a[0] * b[0] + a[1] * b[1] + a[2] * b[2];
   10e5c:	11f7f7d3          	fmul.s	fa5,fa5,ft11
   10e60:	11f6f6d3          	fmul.s	fa3,fa3,ft11
		a[0] * b[1] - a[1] * b[0]);
   10e64:	10b27253          	fmul.s	ft4,ft4,fa1
	return a[0] * b[0] + a[1] * b[1] + a[2] * b[2];
   10e68:	11f57553          	fmul.s	fa0,fa0,ft11
   10e6c:	31917343          	fmadd.s	ft6,ft2,fs9,ft6
	return vec3(a[1] * b[2] - a[2] * b[1],
   10e70:	00012087          	flw	ft1,0(sp)
	return a[0] * b[0] + a[1] * b[1] + a[2] * b[2];
   10e74:	79ae77c3          	fmadd.s	fa5,ft8,fs10,fa5
	return vec3(a[1] * b[2] - a[2] * b[1],
   10e78:	71e97747          	fmsub.s	fa4,fs2,ft10,fa4
   10e7c:	0130f8c7          	fmsub.s	fa7,ft1,fs3,ft0
	return a[0] * b[0] + a[1] * b[1] + a[2] * b[2];
   10e80:	69a1f1c3          	fmadd.s	ft3,ft3,fs10,fa3
	return vec3(a[1] * b[2] - a[2] * b[1],
   10e84:	21d67647          	fmsub.s	fa2,fa2,ft9,ft4
	return a[0] * b[0] + a[1] * b[1] + a[2] * b[2];
   10e88:	51adfdc3          	fmadd.s	fs11,fs11,fs10,fa0
	if(gn_dot_d > 0.0f) bc = -bc;
   10e8c:	a06417d3          	flt.s	a5,fs0,ft6
   10e90:	7998f7c3          	fmadd.s	fa5,fa7,fs9,fa5
   10e94:	19977743          	fmadd.s	fa4,fa4,fs9,ft3
   10e98:	d9967643          	fmadd.s	fa2,fa2,fs9,fs11
   10e9c:	00078863          	beqz	a5,10eac <_ZL11path_tracerRK10GlobalData.constprop.0+0xddc>
	inline vec3 operator-() const { return vec3(-e[0], -e[1], -e[2]); }
   10ea0:	20f797d3          	fneg.s	fa5,fa5
   10ea4:	20e71753          	fneg.s	fa4,fa4
   10ea8:	20c61653          	fneg.s	fa2,fa2
	if(bc[0] < 0.0f || bc[1] < 0.0f || bc[2] < 0.0f) return false;
   10eac:	a08797d3          	flt.s	a5,fa5,fs0
   10eb0:	06079463          	bnez	a5,10f18 <_ZL11path_tracerRK10GlobalData.constprop.0+0xe48>
   10eb4:	a08717d3          	flt.s	a5,fa4,fs0
   10eb8:	06079063          	bnez	a5,10f18 <_ZL11path_tracerRK10GlobalData.constprop.0+0xe48>
   10ebc:	a08617d3          	flt.s	a5,fa2,fs0
   10ec0:	04079c63          	bnez	a5,10f18 <_ZL11path_tracerRK10GlobalData.constprop.0+0xe48>
	return a[0] * b[0] + a[1] * b[1] + a[2] * b[2];
   10ec4:	01012687          	flw	fa3,16(sp)
	if(t < ray.t_min || t > hit.t) return false;
   10ec8:	0001a7b7          	lui	a5,0x1a
   10ecc:	10defed3          	fmul.s	ft9,ft9,fa3
   10ed0:	2507a687          	flw	fa3,592(a5) # 1a250 <__DATA_BEGIN__>
   10ed4:	e905f5c3          	fmadd.s	fa1,fa1,fa6,ft9
   10ed8:	5823f3c3          	fmadd.s	ft7,ft7,ft2,fa1
	float t = rtm::dot(gn, tri.vrts[0] - ray.o) / gn_dot_d;
   10edc:	1863f3d3          	fdiv.s	ft7,ft7,ft6
	if(t < ray.t_min || t > hit.t) return false;
   10ee0:	a0d397d3          	flt.s	a5,ft7,fa3
   10ee4:	02079a63          	bnez	a5,10f18 <_ZL11path_tracerRK10GlobalData.constprop.0+0xe48>
   10ee8:	01812687          	flw	fa3,24(sp)
   10eec:	a07697d3          	flt.s	a5,fa3,ft7
   10ef0:	02079463          	bnez	a5,10f18 <_ZL11path_tracerRK10GlobalData.constprop.0+0xe48>
	hit.bc = rtm::vec2(bc.x, bc.y) / (bc[0] + bc[1] + bc[2]);
   10ef4:	00e7f6d3          	fadd.s	fa3,fa5,fa4
	hit.t = t ;
   10ef8:	00712c27          	fsw	ft7,24(sp)
		hit.id = face_index;
   10efc:	00070613          	mv	a2,a4
		return true;
   10f00:	00100413          	li	s0,1
	hit.bc = rtm::vec2(bc.x, bc.y) / (bc[0] + bc[1] + bc[2]);
   10f04:	00c6f6d3          	fadd.s	fa3,fa3,fa2
	return vec2(a.e[0] / b.e[0], a.e[1] / b.e[1]);
   10f08:	18d7f7d3          	fdiv.s	fa5,fa5,fa3
   10f0c:	02f12427          	fsw	fa5,40(sp)
   10f10:	18d777d3          	fdiv.s	fa5,fa4,fa3
   10f14:	02f12227          	fsw	fa5,36(sp)
			for(uint32_t i = 0; i <= current_entry.data.lst_chld_ofst; ++i)
   10f18:	00ce0e13          	add	t3,t3,12
   10f1c:	0017079b          	addw	a5,a4,1
   10f20:	e0ee9ae3          	bne	t4,a4,10d34 <_ZL11path_tracerRK10GlobalData.constprop.0+0xc64>
   10f24:	02c12b07          	flw	fs6,44(sp)
   10f28:	03012087          	flw	ft1,48(sp)
   10f2c:	03412907          	flw	fs2,52(sp)
   10f30:	03812807          	flw	fa6,56(sp)
	while(node_stack_size);
   10f34:	d80694e3          	bnez	a3,10cbc <_ZL11path_tracerRK10GlobalData.constprop.0+0xbec>
   10f38:	02412787          	flw	fa5,36(sp)
   10f3c:	06c12623          	sw	a2,108(sp)
   10f40:	21ad09d3          	fmv.s	fs3,fs10
   10f44:	06f12427          	fsw	fa5,104(sp)
   10f48:	02812787          	flw	fa5,40(sp)
   10f4c:	21ff8a53          	fmv.s	fs4,ft11
   10f50:	06f12227          	fsw	fa5,100(sp)
   10f54:	01812787          	flw	fa5,24(sp)
   10f58:	06f12027          	fsw	fa5,96(sp)
				if(intersect(global_data, last_patch_index, last_ray, ray, hit))
   10f5c:	800418e3          	bnez	s0,1076c <_ZL11path_tracerRK10GlobalData.constprop.0+0x69c>
	e[0] += v[0];
   10f60:	04412787          	flw	fa5,68(sp)
   10f64:	000d0d93          	mv	s11,s10
   10f68:	0167f7d3          	fadd.s	fa5,fa5,fs6
   10f6c:	04f12227          	fsw	fa5,68(sp)
		for(uint j = 0; j < samples; ++j)
   10f70:	fffa0a1b          	addw	s4,s4,-1
   10f74:	a40a1463          	bnez	s4,101bc <_ZL11path_tracerRK10GlobalData.constprop.0+0xec>
	e[0] /= v[0];
   10f78:	0001a7b7          	lui	a5,0x1a
   10f7c:	2b47a787          	flw	fa5,692(a5) # 1a2b4 <__DATA_BEGIN__+0x64>
   10f80:	04412d07          	flw	fs10,68(sp)
	out |= static_cast<uint32_t>(in.r * 255.0f + 0.5f) << 0;
   10f84:	f0000653          	fmv.w.x	fa2,zero
   10f88:	2584a687          	flw	fa3,600(s1)
   10f8c:	10fd7d53          	fmul.s	fs10,fs10,fa5
   10f90:	0001a7b7          	lui	a5,0x1a
   10f94:	2b87a707          	flw	fa4,696(a5) # 1a2b8 <__DATA_BEGIN__+0x68>
   10f98:	0001a7b7          	lui	a5,0x1a
   10f9c:	2687a787          	flw	fa5,616(a5) # 1a268 <__DATA_BEGIN__+0x18>
   10fa0:	28cd1d53          	fmax.s	fs10,fs10,fa2
		global_data.framebuffer[index] = encode_pixel(out);
   10fa4:	020d9793          	sll	a5,s11,0x20
   10fa8:	05003703          	ld	a4,80(zero) # 50 <main-0x10060>
	out |= static_cast<uint32_t>(in.r * 255.0f + 0.5f) << 0;
   10fac:	28dd0d53          	fmin.s	fs10,fs10,fa3
		global_data.framebuffer[index] = encode_pixel(out);
   10fb0:	01e7dd93          	srl	s11,a5,0x1e
   10fb4:	01b70733          	add	a4,a4,s11
	out |= static_cast<uint32_t>(in.r * 255.0f + 0.5f) << 0;
   10fb8:	78ed7d43          	fmadd.s	fs10,fs10,fa4,fa5
   10fbc:	c01d16d3          	fcvt.wu.s	a3,fs10,rtz
	out |= static_cast<uint32_t>(in.b * 255.0f + 0.5f) << 16;
   10fc0:	0106961b          	sllw	a2,a3,0x10
	out |= static_cast<uint32_t>(in.g * 255.0f + 0.5f) << 8;
   10fc4:	0086979b          	sllw	a5,a3,0x8
	out |= static_cast<uint32_t>(in.b * 255.0f + 0.5f) << 16;
   10fc8:	00c7e7b3          	or	a5,a5,a2
   10fcc:	00d7e7b3          	or	a5,a5,a3
	out |= 0xff                                        << 24;
   10fd0:	ff0006b7          	lui	a3,0xff000
   10fd4:	00d7e7b3          	or	a5,a5,a3
		global_data.framebuffer[index] = encode_pixel(out);
   10fd8:	00f72023          	sw	a5,0(a4)
   10fdc:	00000d8b          	traxamoin	s11
	for(uint32_t index = atomicinc(); index < global_data.framebuffer_size; index = atomicinc())
   10fe0:	04802783          	lw	a5,72(zero) # 48 <main-0x10068>
   10fe4:	000d8d9b          	sext.w	s11,s11
   10fe8:	96fdea63          	bltu	s11,a5,1015c <_ZL11path_tracerRK10GlobalData.constprop.0+0x8c>
}
   10fec:	51813083          	ld	ra,1304(sp)
   10ff0:	51013403          	ld	s0,1296(sp)
   10ff4:	50813483          	ld	s1,1288(sp)
   10ff8:	50013903          	ld	s2,1280(sp)
   10ffc:	4f813983          	ld	s3,1272(sp)
   11000:	4f013a03          	ld	s4,1264(sp)
   11004:	4e813a83          	ld	s5,1256(sp)
   11008:	4e013b03          	ld	s6,1248(sp)
   1100c:	4d813b83          	ld	s7,1240(sp)
   11010:	4d013c03          	ld	s8,1232(sp)
   11014:	4c813c83          	ld	s9,1224(sp)
   11018:	4c013d03          	ld	s10,1216(sp)
   1101c:	4b813d83          	ld	s11,1208(sp)
   11020:	4ac12407          	flw	fs0,1196(sp)
   11024:	4a812487          	flw	fs1,1192(sp)
   11028:	4a412907          	flw	fs2,1188(sp)
   1102c:	4a012987          	flw	fs3,1184(sp)
   11030:	49c12a07          	flw	fs4,1180(sp)
   11034:	49812a87          	flw	fs5,1176(sp)
   11038:	49412b07          	flw	fs6,1172(sp)
   1103c:	49012b87          	flw	fs7,1168(sp)
   11040:	48c12c07          	flw	fs8,1164(sp)
   11044:	48812c87          	flw	fs9,1160(sp)
   11048:	48412d07          	flw	fs10,1156(sp)
   1104c:	48012d87          	flw	fs11,1152(sp)
   11050:	52010113          	add	sp,sp,1312
   11054:	00008067          	ret
			move_to_stack(node4, blas[current_entry.data.fst_chld_ind]);
   11058:	006c9c93          	sll	s9,s9,0x6
		uint64_t r = ((uint64_t*)&src)[i];
   1105c:	019b87b3          	add	a5,s7,s9
   11060:	0001a737          	lui	a4,0x1a
   11064:	26c72787          	flw	fa5,620(a4) # 1a26c <__DATA_BEGIN__+0x1c>
   11068:	0207b503          	ld	a0,32(a5)
   1106c:	0287b583          	ld	a1,40(a5)
   11070:	0307b683          	ld	a3,48(a5)
   11074:	0087be83          	ld	t4,8(a5)
   11078:	0107be03          	ld	t3,16(a5)
   1107c:	0187b303          	ld	t1,24(a5)
   11080:	0387b703          	ld	a4,56(a5)
		((uint64_t*)&dst)[i] = r;
   11084:	0007b783          	ld	a5,0(a5)
	return u16 & 0x8000u ? 1.0f : as_f32(((uint32_t)u16 << 8) | 0x3f800000u) - 1.0f;
   11088:	0001a637          	lui	a2,0x1a
   1108c:	010a8893          	add	a7,s5,16
   11090:	00441413          	sll	s0,s0,0x4
		((uint64_t*)&dst)[i] = r;
   11094:	02aab023          	sd	a0,32(s5)
   11098:	02bab423          	sd	a1,40(s5)
   1109c:	02dab823          	sd	a3,48(s5)
   110a0:	0897f1d3          	fsub.s	ft3,fa5,fs1
   110a4:	0977f153          	fsub.s	ft2,fa5,fs7
	return u16 & 0x8000u ? 1.0f : as_f32(((uint32_t)u16 << 8) | 0x3f800000u) - 1.0f;
   110a8:	2584a507          	flw	fa0,600(s1)
   110ac:	26062587          	flw	fa1,608(a2) # 1a260 <__DATA_BEGIN__+0x10>
   110b0:	25092207          	flw	ft4,592(s2)
		((uint64_t*)&dst)[i] = r;
   110b4:	00fab023          	sd	a5,0(s5)
   110b8:	01dab423          	sd	t4,8(s5)
   110bc:	01cab823          	sd	t3,16(s5)
   110c0:	006abc23          	sd	t1,24(s5)
   110c4:	02eabc23          	sd	a4,56(s5)
			for(uint32_t i = 0; i <= current_entry.data.lst_chld_ofst; ++i)
   110c8:	000a8693          	mv	a3,s5
   110cc:	008888b3          	add	a7,a7,s0
	return u16 & 0x8000u ? 1.0f : as_f32(((uint32_t)u16 << 8) | 0x3f800000u) - 1.0f;
   110d0:	3f8005b7          	lui	a1,0x3f800
   110d4:	0f010513          	add	a0,sp,240
   110d8:	00c0006f          	j	110e4 <_ZL11path_tracerRK10GlobalData.constprop.0+0x1014>
   110dc:	01068693          	add	a3,a3,16 # ffffffffff000010 <__global_pointer$+0xfffffffffefe55c0>
   110e0:	b4d88663          	beq	a7,a3,1042c <_ZL11path_tracerRK10GlobalData.constprop.0+0x35c>
		aabb.min[i] = u16_to_f32(aabb16.min[i]) * 2.0f - 1.0f;
   110e4:	0006d783          	lhu	a5,0(a3)
   110e8:	208407d3          	fmv.s	fa5,fs0
   110ec:	00f7d713          	srl	a4,a5,0xf
   110f0:	00071c63          	bnez	a4,11108 <_ZL11path_tracerRK10GlobalData.constprop.0+0x1038>
   110f4:	0087979b          	sllw	a5,a5,0x8
	return *((float*)&u);
   110f8:	00b7e7b3          	or	a5,a5,a1
	return u16 & 0x8000u ? 1.0f : as_f32(((uint32_t)u16 << 8) | 0x3f800000u) - 1.0f;
   110fc:	f00787d3          	fmv.w.x	fa5,a5
   11100:	08a7f7d3          	fsub.s	fa5,fa5,fa0
   11104:	00f7f7d3          	fadd.s	fa5,fa5,fa5
		aabb.max[i] = u16_to_f32(aabb16.max[i]) * 2.0f - 1.0f;
   11108:	0066d783          	lhu	a5,6(a3)
   1110c:	20b58353          	fmv.s	ft6,fa1
   11110:	00f7d713          	srl	a4,a5,0xf
   11114:	00071c63          	bnez	a4,1112c <_ZL11path_tracerRK10GlobalData.constprop.0+0x105c>
   11118:	0087979b          	sllw	a5,a5,0x8
	return *((float*)&u);
   1111c:	00b7e7b3          	or	a5,a5,a1
	return u16 & 0x8000u ? 1.0f : as_f32(((uint32_t)u16 << 8) | 0x3f800000u) - 1.0f;
   11120:	f0078753          	fmv.w.x	fa4,a5
   11124:	08a77353          	fsub.s	ft6,fa4,fa0
   11128:	00637353          	fadd.s	ft6,ft6,ft6
		aabb.min[i] = u16_to_f32(aabb16.min[i]) * 2.0f - 1.0f;
   1112c:	0026d783          	lhu	a5,2(a3)
   11130:	20b58653          	fmv.s	fa2,fa1
   11134:	00f7d713          	srl	a4,a5,0xf
   11138:	00071c63          	bnez	a4,11150 <_ZL11path_tracerRK10GlobalData.constprop.0+0x1080>
   1113c:	0087979b          	sllw	a5,a5,0x8
	return *((float*)&u);
   11140:	00b7e7b3          	or	a5,a5,a1
	return u16 & 0x8000u ? 1.0f : as_f32(((uint32_t)u16 << 8) | 0x3f800000u) - 1.0f;
   11144:	f0078753          	fmv.w.x	fa4,a5
   11148:	08a77653          	fsub.s	fa2,fa4,fa0
   1114c:	00c67653          	fadd.s	fa2,fa2,fa2
		aabb.max[i] = u16_to_f32(aabb16.max[i]) * 2.0f - 1.0f;
   11150:	0086d783          	lhu	a5,8(a3)
   11154:	20b582d3          	fmv.s	ft5,fa1
   11158:	00f7d713          	srl	a4,a5,0xf
   1115c:	00071c63          	bnez	a4,11174 <_ZL11path_tracerRK10GlobalData.constprop.0+0x10a4>
   11160:	0087979b          	sllw	a5,a5,0x8
	return *((float*)&u);
   11164:	00b7e7b3          	or	a5,a5,a1
	return u16 & 0x8000u ? 1.0f : as_f32(((uint32_t)u16 << 8) | 0x3f800000u) - 1.0f;
   11168:	f0078753          	fmv.w.x	fa4,a5
   1116c:	08a772d3          	fsub.s	ft5,fa4,fa0
   11170:	0052f2d3          	fadd.s	ft5,ft5,ft5
		aabb.min[i] = u16_to_f32(aabb16.min[i]) * 2.0f - 1.0f;
   11174:	0046d783          	lhu	a5,4(a3)
   11178:	20b586d3          	fmv.s	fa3,fa1
   1117c:	00f7d713          	srl	a4,a5,0xf
   11180:	00071c63          	bnez	a4,11198 <_ZL11path_tracerRK10GlobalData.constprop.0+0x10c8>
   11184:	0087979b          	sllw	a5,a5,0x8
	return *((float*)&u);
   11188:	00b7e7b3          	or	a5,a5,a1
	return u16 & 0x8000u ? 1.0f : as_f32(((uint32_t)u16 << 8) | 0x3f800000u) - 1.0f;
   1118c:	f0078753          	fmv.w.x	fa4,a5
   11190:	08a776d3          	fsub.s	fa3,fa4,fa0
   11194:	00d6f6d3          	fadd.s	fa3,fa3,fa3
		aabb.max[i] = u16_to_f32(aabb16.max[i]) * 2.0f - 1.0f;
   11198:	00a6d783          	lhu	a5,10(a3)
   1119c:	0001a737          	lui	a4,0x1a
   111a0:	26072087          	flw	ft1,608(a4) # 1a260 <__DATA_BEGIN__+0x10>
   111a4:	00f7d713          	srl	a4,a5,0xf
   111a8:	00071c63          	bnez	a4,111c0 <_ZL11path_tracerRK10GlobalData.constprop.0+0x10f0>
   111ac:	0087979b          	sllw	a5,a5,0x8
	return *((float*)&u);
   111b0:	00b7e7b3          	or	a5,a5,a1
	return u16 & 0x8000u ? 1.0f : as_f32(((uint32_t)u16 << 8) | 0x3f800000u) - 1.0f;
   111b4:	f0078753          	fmv.w.x	fa4,a5
   111b8:	092770d3          	fsub.s	ft1,fa4,fs2
   111bc:	0010f0d3          	fadd.s	ft1,ft1,ft1
	return vec3(a[0] - b[0], a[1] - b[1], a[2] - b[2]);
   111c0:	00f9f7d3          	fadd.s	fa5,fs3,fa5
   111c4:	0069f353          	fadd.s	ft6,fs3,ft6
   111c8:	00c1f653          	fadd.s	fa2,ft3,fa2
   111cc:	0051f2d3          	fadd.s	ft5,ft3,ft5
   111d0:	00d176d3          	fadd.s	fa3,ft2,fa3
	return vec3(a[0] * b[0], a[1] * b[1], a[2] * b[2]);
   111d4:	11b7f7d3          	fmul.s	fa5,fa5,fs11
   111d8:	11b37353          	fmul.s	ft6,ft6,fs11
	return vec3(a[0] - b[0], a[1] - b[1], a[2] - b[2]);
   111dc:	001170d3          	fadd.s	ft1,ft2,ft1
	return vec3(a[0] * b[0], a[1] * b[1], a[2] * b[2]);
   111e0:	11a2f2d3          	fmul.s	ft5,ft5,fs10
   111e4:	11a67653          	fmul.s	fa2,fa2,fs10
	if (tmin > tmax) return ray.t_max;//no hit || behind
   111e8:	0001a7b7          	lui	a5,0x1a
   111ec:	28678753          	fmin.s	fa4,fa5,ft6
   111f0:	2787a387          	flw	ft7,632(a5) # 1a278 <__DATA_BEGIN__+0x28>
   111f4:	286797d3          	fmax.s	fa5,fa5,ft6
   111f8:	1156f6d3          	fmul.s	fa3,fa3,fs5
   111fc:	1150f0d3          	fmul.s	ft1,ft1,fs5
	float tmin = std::max(std::max(tminv.x, tminv.y), std::max(tminv.z, ray.t_min));
   11200:	28560353          	fmin.s	ft6,fa2,ft5
   11204:	28471753          	fmax.s	fa4,fa4,ft4
	if (tmin > tmax) return ray.t_max;//no hit || behind
   11208:	28561653          	fmax.s	fa2,fa2,ft5
   1120c:	287787d3          	fmin.s	fa5,fa5,ft7
   11210:	281682d3          	fmin.s	ft5,fa3,ft1
   11214:	28671753          	fmax.s	fa4,fa4,ft6
   11218:	28c787d3          	fmin.s	fa5,fa5,fa2
   1121c:	281696d3          	fmax.s	fa3,fa3,ft1
   11220:	28571753          	fmax.s	fa4,fa4,ft5
   11224:	28d787d3          	fmin.s	fa5,fa5,fa3
   11228:	a0e797d3          	flt.s	a5,fa5,fa4
   1122c:	00078463          	beqz	a5,11234 <_ZL11path_tracerRK10GlobalData.constprop.0+0x1164>
   11230:	20738753          	fmv.s	fa4,ft7
				new_entry.data = node4.nodes[i].data;
   11234:	00c6a703          	lw	a4,12(a3)
				if(new_entry.t < hit.t) insert(new_entry, node_stack, node_stack_size++);
   11238:	a00717d3          	flt.s	a5,fa4,ft0
				new_entry.data = node4.nodes[i].data;
   1123c:	04e12e23          	sw	a4,92(sp)
				if(new_entry.t < hit.t) insert(new_entry, node_stack, node_stack_size++);
   11240:	e8078ee3          	beqz	a5,110dc <_ZL11path_tracerRK10GlobalData.constprop.0+0x100c>
   11244:	001d881b          	addw	a6,s11,1
	for(; j != min; --j)
   11248:	060d8263          	beqz	s11,112ac <_ZL11path_tracerRK10GlobalData.constprop.0+0x11dc>
   1124c:	fffd879b          	addw	a5,s11,-1
   11250:	020d9613          	sll	a2,s11,0x20
   11254:	01d65713          	srl	a4,a2,0x1d
   11258:	02079613          	sll	a2,a5,0x20
   1125c:	01d65793          	srl	a5,a2,0x1d
   11260:	00050e13          	mv	t3,a0
   11264:	00e50733          	add	a4,a0,a4
   11268:	00f507b3          	add	a5,a0,a5
   1126c:	0180006f          	j	11284 <_ZL11path_tracerRK10GlobalData.constprop.0+0x11b4>
		stack[j] = stack[j - 1];
   11270:	0007b603          	ld	a2,0(a5)
	for(; j != min; --j)
   11274:	ff870713          	add	a4,a4,-8
		stack[j] = stack[j - 1];
   11278:	00c73423          	sd	a2,8(a4)
	for(; j != min; --j)
   1127c:	02f50a63          	beq	a0,a5,112b0 <_ZL11path_tracerRK10GlobalData.constprop.0+0x11e0>
   11280:	000e8793          	mv	a5,t4
		if(stack[j - 1].t >= entry.t) break;
   11284:	0007a787          	flw	fa5,0(a5)
		stack[j] = stack[j - 1];
   11288:	00070313          	mv	t1,a4
	for(; j != min; --j)
   1128c:	ff878e93          	add	t4,a5,-8
		if(stack[j - 1].t >= entry.t) break;
   11290:	a0f70653          	fle.s	a2,fa4,fa5
   11294:	fc060ee3          	beqz	a2,11270 <_ZL11path_tracerRK10GlobalData.constprop.0+0x11a0>
	stack[j] = entry;
   11298:	04e12c27          	fsw	fa4,88(sp)
   1129c:	05813783          	ld	a5,88(sp)
				if(new_entry.t < hit.t) insert(new_entry, node_stack, node_stack_size++);
   112a0:	00080d93          	mv	s11,a6
	stack[j] = entry;
   112a4:	00f33023          	sd	a5,0(t1)
}
   112a8:	e35ff06f          	j	110dc <_ZL11path_tracerRK10GlobalData.constprop.0+0x100c>
   112ac:	0f010e13          	add	t3,sp,240
	stack[j] = entry;
   112b0:	04e12c27          	fsw	fa4,88(sp)
   112b4:	05813783          	ld	a5,88(sp)
   112b8:	000e0313          	mv	t1,t3
				if(new_entry.t < hit.t) insert(new_entry, node_stack, node_stack_size++);
   112bc:	00080d93          	mv	s11,a6
	stack[j] = entry;
   112c0:	00f33023          	sd	a5,0(t1)
   112c4:	e19ff06f          	j	110dc <_ZL11path_tracerRK10GlobalData.constprop.0+0x100c>
			return intersect(global_data.cblas, global_data.mesh, ray, hit); //BVHC
   112c8:	0001a7b7          	lui	a5,0x1a
   112cc:	26c7a687          	flw	fa3,620(a5) # 1a26c <__DATA_BEGIN__+0x1c>
	node_stack[0].t = ray.t_min;
   112d0:	0001a737          	lui	a4,0x1a
	return vec3(a[0] / b[0], a[1] / b[1], a[2] / b[2]);
   112d4:	0001a6b7          	lui	a3,0x1a
   112d8:	0986f753          	fsub.s	fa4,fa3,fs8
   112dc:	0976f553          	fsub.s	fa0,fa3,fs7
   112e0:	0896f653          	fsub.s	fa2,fa3,fs1
   112e4:	06412687          	flw	fa3,100(sp)
   112e8:	2586a787          	flw	fa5,600(a3) # 1a258 <__DATA_BEGIN__+0x8>
   112ec:	0001a7b7          	lui	a5,0x1a
   112f0:	02d12227          	fsw	fa3,36(sp)
   112f4:	06812687          	flw	fa3,104(sp)
   112f8:	1937f7d3          	fdiv.s	fa5,fa5,fs3
   112fc:	2507b783          	ld	a5,592(a5) # 1a250 <__DATA_BEGIN__>
   11300:	00d12c27          	fsw	fa3,24(sp)
   11304:	27872687          	flw	fa3,632(a4) # 1a278 <__DATA_BEGIN__+0x28>
   11308:	20e70853          	fmv.s	fa6,fa4
   1130c:	06c12883          	lw	a7,108(sp)
   11310:	00d12827          	fsw	fa3,16(sp)
   11314:	2586a687          	flw	fa3,600(a3)
   11318:	218c0d53          	fmv.s	fs10,fs8
   1131c:	20c60153          	fmv.s	ft2,fa2
   11320:	0a003303          	ld	t1,160(zero) # a0 <main-0x10010>
	bool found_hit = false;
   11324:	00000413          	li	s0,0
	node_stack[0].t = ray.t_min;
   11328:	0ef13823          	sd	a5,240(sp)
	uint32_t node_stack_size = 1u;
   1132c:	00100713          	li	a4,1
   11330:	1946f053          	fdiv.s	ft0,fa3,fs4
   11334:	1996f1d3          	fdiv.s	ft3,fa3,fs9
   11338:	20000753          	fmv.s	fa4,ft0
   1133c:	20a506d3          	fmv.s	fa3,fa0
   11340:	20f78553          	fmv.s	fa0,fa5
		const NodeStackEntry current_entry = node_stack[--node_stack_size];
   11344:	fff7071b          	addw	a4,a4,-1
   11348:	02071693          	sll	a3,a4,0x20
   1134c:	01d6d793          	srl	a5,a3,0x1d
   11350:	43078793          	add	a5,a5,1072
   11354:	05010693          	add	a3,sp,80
   11358:	00d787b3          	add	a5,a5,a3
   1135c:	c707b583          	ld	a1,-912(a5)
		if(current_entry.t >= hit.t) return found_hit;
   11360:	01012607          	flw	fa2,16(sp)
   11364:	f00587d3          	fmv.w.x	fa5,a1
		const NodeStackEntry current_entry = node_stack[--node_stack_size];
   11368:	04b13c23          	sd	a1,88(sp)
		if(current_entry.t >= hit.t) return found_hit;
   1136c:	a0f607d3          	fle.s	a5,fa2,fa5
   11370:	020794e3          	bnez	a5,11b98 <_ZL11path_tracerRK10GlobalData.constprop.0+0x1ac8>
		if(!current_entry.data.is_leaf)
   11374:	05c12783          	lw	a5,92(sp)
			for(uint32_t i = 0; i <= current_entry.data.lst_chld_ofst; ++i)
   11378:	0215de13          	srl	t3,a1,0x21
   1137c:	007e7e13          	and	t3,t3,7
		if(!current_entry.data.is_leaf)
   11380:	0017f793          	and	a5,a5,1
				found_hit |= intersect(current_entry.data.fst_chld_ind + i, mesh, ray, hit);
   11384:	0245d593          	srl	a1,a1,0x24
		if(!current_entry.data.is_leaf)
   11388:	2e078263          	beqz	a5,1166c <_ZL11path_tracerRK10GlobalData.constprop.0+0x159c>
			for(uint32_t i = 0; i <= current_entry.data.lst_chld_ofst; ++i)
   1138c:	0a803503          	ld	a0,168(zero) # a8 <main-0x10008>
   11390:	00159793          	sll	a5,a1,0x1
   11394:	00b787b3          	add	a5,a5,a1
   11398:	00279793          	sll	a5,a5,0x2
   1139c:	0b003803          	ld	a6,176(zero) # b0 <main-0x10000>
	if(gn_dot_d > 0.0f) bc = -bc;
   113a0:	f0000453          	fmv.w.x	fs0,zero
   113a4:	00f50533          	add	a0,a0,a5
   113a8:	00be0e33          	add	t3,t3,a1
   113ac:	03612427          	fsw	fs6,40(sp)
   113b0:	02a12627          	fsw	fa0,44(sp)
   113b4:	02e12827          	fsw	fa4,48(sp)
   113b8:	02312a27          	fsw	ft3,52(sp)
   113bc:	02d12c27          	fsw	fa3,56(sp)
   113c0:	02212e27          	fsw	ft2,60(sp)
   113c4:	05012027          	fsw	fa6,64(sp)
   113c8:	0080006f          	j	113d0 <_ZL11path_tracerRK10GlobalData.constprop.0+0x1300>
   113cc:	00078593          	mv	a1,a5
	const Triangle tri(mesh.vertices[vi[0]], mesh.vertices[vi[1]], mesh.vertices[vi[2]]);
   113d0:	00056f83          	lwu	t6,0(a0)
   113d4:	00456f03          	lwu	t5,4(a0)
   113d8:	00856e83          	lwu	t4,8(a0)
   113dc:	001f9613          	sll	a2,t6,0x1
   113e0:	001f1793          	sll	a5,t5,0x1
   113e4:	001e9693          	sll	a3,t4,0x1
   113e8:	01f60633          	add	a2,a2,t6
   113ec:	01e787b3          	add	a5,a5,t5
   113f0:	01d686b3          	add	a3,a3,t4
   113f4:	00261613          	sll	a2,a2,0x2
   113f8:	00279793          	sll	a5,a5,0x2
   113fc:	00269693          	sll	a3,a3,0x2
   11400:	00f807b3          	add	a5,a6,a5
   11404:	00c80633          	add	a2,a6,a2
   11408:	00d806b3          	add	a3,a6,a3
	inline float operator[](int i) const { return e[i]; }
   1140c:	0086af07          	flw	ft10,8(a3)
   11410:	00062507          	flw	fa0,0(a2)
   11414:	00862787          	flw	fa5,8(a2)
   11418:	0007a207          	flw	ft4,0(a5)
   1141c:	0006a107          	flw	ft2,0(a3)
	return vec3(a[0] - b[0], a[1] - b[1], a[2] - b[2]);
   11420:	08ff73d3          	fsub.s	ft7,ft10,fa5
   11424:	08a27e53          	fsub.s	ft8,ft4,fa0
	inline float operator[](int i) const { return e[i]; }
   11428:	0087a687          	flw	fa3,8(a5)
   1142c:	0046ac07          	flw	fs8,4(a3)
   11430:	00462587          	flw	fa1,4(a2)
	return vec3(a[0] - b[0], a[1] - b[1], a[2] - b[2]);
   11434:	08f6f053          	fsub.s	ft0,fa3,fa5
   11438:	08a171d3          	fsub.s	ft3,ft2,fa0
		(-(a[0] * b[2] - a[2] * b[0])),
   1143c:	107e7fd3          	fmul.s	ft11,ft8,ft7
	return vec3(a[0] - b[0], a[1] - b[1], a[2] - b[2]);
   11440:	08bc7ad3          	fsub.s	fs5,fs8,fa1
	inline float operator[](int i) const { return e[i]; }
   11444:	0047a087          	flw	ft1,4(a5)
	return vec3(a[0] - b[0], a[1] - b[1], a[2] - b[2]);
   11448:	084178d3          	fsub.s	fa7,ft2,ft4
   1144c:	0976f653          	fsub.s	fa2,fa3,fs7
	return vec3(a[1] * b[2] - a[2] * b[1],
   11450:	f8307fc7          	fmsub.s	ft11,ft0,ft3,ft11
	return vec3(a[0] - b[0], a[1] - b[1], a[2] - b[2]);
   11454:	08b0f753          	fsub.s	fa4,ft1,fa1
	return vec3(a[1] * b[2] - a[2] * b[1],
   11458:	115072d3          	fmul.s	ft5,ft0,fs5
	return vec3(a[0] - b[0], a[1] - b[1], a[2] - b[2]);
   1145c:	08257853          	fsub.s	fa6,fa0,ft2
   11460:	097f7ed3          	fsub.s	ft9,ft10,fs7
   11464:	0977f353          	fsub.s	ft6,fa5,fs7
	return vec3(a[1] * b[2] - a[2] * b[1],
   11468:	01f12027          	fsw	ft11,0(sp)
   1146c:	287773c7          	fmsub.s	ft7,fa4,ft7,ft5
	return a[0] * b[0] + a[1] * b[1] + a[2] * b[2];
   11470:	00012287          	flw	ft5,0(sp)
		(-(a[0] * b[2] - a[2] * b[0])),
   11474:	10c8fb53          	fmul.s	fs6,fa7,fa2
   11478:	11d87dd3          	fmul.s	fs11,fa6,ft9
	return vec3(a[0] - b[0], a[1] - b[1], a[2] - b[2]);
   1147c:	08df76d3          	fsub.s	fa3,ft10,fa3
   11480:	0890f953          	fsub.s	fs2,ft1,fs1
   11484:	09e7f7d3          	fsub.s	fa5,fa5,ft10
   11488:	089c7fd3          	fsub.s	ft11,fs8,fs1
   1148c:	0895ff53          	fsub.s	ft10,fa1,fs1
   11490:	09a27253          	fsub.s	ft4,ft4,fs10
   11494:	09a17153          	fsub.s	ft2,ft2,fs10
   11498:	09a57553          	fsub.s	fa0,fa0,fs10
		(-(a[0] * b[2] - a[2] * b[0])),
   1149c:	00c12427          	fsw	fa2,8(sp)
   114a0:	106e7653          	fmul.s	fa2,ft8,ft6
		a[0] * b[1] - a[1] * b[0]);
   114a4:	103771d3          	fmul.s	ft3,fa4,ft3
	return a[0] * b[0] + a[1] * b[1] + a[2] * b[2];
   114a8:	1142f2d3          	fmul.s	ft5,ft5,fs4
	return vec3(a[0] - b[0], a[1] - b[1], a[2] - b[2]);
   114ac:	081c70d3          	fsub.s	ft1,fs8,ft1
   114b0:	0985f5d3          	fsub.s	fa1,fa1,fs8
	return vec3(a[1] * b[2] - a[2] * b[1],
   114b4:	1126fc53          	fmul.s	fs8,fa3,fs2
   114b8:	b046f6c7          	fmsub.s	fa3,fa3,ft4,fs6
   114bc:	11f7fb53          	fmul.s	fs6,fa5,ft11
   114c0:	d827f7c7          	fmsub.s	fa5,fa5,ft2,fs11
   114c4:	11e07dd3          	fmul.s	fs11,ft0,ft10
   114c8:	60a07047          	fmsub.s	ft0,ft0,fa0,fa2
   114cc:	195e71c7          	fmsub.s	ft3,ft8,fs5,ft3
	return a[0] * b[0] + a[1] * b[1] + a[2] * b[2];
   114d0:	2933f2c3          	fmadd.s	ft5,ft7,fs3,ft5
	return vec3(a[1] * b[2] - a[2] * b[1],
   114d4:	00812607          	flw	fa2,8(sp)
   114d8:	b1d5fec7          	fmsub.s	ft9,fa1,ft9,fs6
   114dc:	d8677dc7          	fmsub.s	fs11,fa4,ft6,fs11
   114e0:	c0c0f647          	fmsub.s	fa2,ft1,fa2,fs8
	return a[0] * b[0] + a[1] * b[1] + a[2] * b[2];
   114e4:	1146f6d3          	fmul.s	fa3,fa3,fs4
		a[0] * b[1] - a[1] * b[0]);
   114e8:	1040f0d3          	fmul.s	ft1,ft1,ft4
   114ec:	1025f5d3          	fmul.s	fa1,fa1,ft2
	return a[0] * b[0] + a[1] * b[1] + a[2] * b[2];
   114f0:	1147f7d3          	fmul.s	fa5,fa5,fs4
		a[0] * b[1] - a[1] * b[0]);
   114f4:	10a77753          	fmul.s	fa4,fa4,fa0
	return a[0] * b[0] + a[1] * b[1] + a[2] * b[2];
   114f8:	11407053          	fmul.s	ft0,ft0,fs4
   114fc:	2991f2c3          	fmadd.s	ft5,ft3,fs9,ft5
	return vec3(a[1] * b[2] - a[2] * b[1],
   11500:	0928f8c7          	fmsub.s	fa7,fa7,fs2,ft1
	return a[0] * b[0] + a[1] * b[1] + a[2] * b[2];
   11504:	69367643          	fmadd.s	fa2,fa2,fs3,fa3
	return vec3(a[1] * b[2] - a[2] * b[1],
   11508:	59f87847          	fmsub.s	fa6,fa6,ft11,fa1
	return a[0] * b[0] + a[1] * b[1] + a[2] * b[2];
   1150c:	793ef7c3          	fmadd.s	fa5,ft9,fs3,fa5
	return vec3(a[1] * b[2] - a[2] * b[1],
   11510:	71ee7747          	fmsub.s	fa4,ft8,ft10,fa4
	return a[0] * b[0] + a[1] * b[1] + a[2] * b[2];
   11514:	013dfdc3          	fmadd.s	fs11,fs11,fs3,ft0
	if(gn_dot_d > 0.0f) bc = -bc;
   11518:	a05417d3          	flt.s	a5,fs0,ft5
   1151c:	6198f643          	fmadd.s	fa2,fa7,fs9,fa2
   11520:	799877c3          	fmadd.s	fa5,fa6,fs9,fa5
   11524:	d9977743          	fmadd.s	fa4,fa4,fs9,fs11
   11528:	00078863          	beqz	a5,11538 <_ZL11path_tracerRK10GlobalData.constprop.0+0x1468>
	inline vec3 operator-() const { return vec3(-e[0], -e[1], -e[2]); }
   1152c:	20c61653          	fneg.s	fa2,fa2
   11530:	20f797d3          	fneg.s	fa5,fa5
   11534:	20e71753          	fneg.s	fa4,fa4
	if(bc[0] < 0.0f || bc[1] < 0.0f || bc[2] < 0.0f) return false;
   11538:	a08617d3          	flt.s	a5,fa2,fs0
   1153c:	06079463          	bnez	a5,115a4 <_ZL11path_tracerRK10GlobalData.constprop.0+0x14d4>
   11540:	a08797d3          	flt.s	a5,fa5,fs0
   11544:	06079063          	bnez	a5,115a4 <_ZL11path_tracerRK10GlobalData.constprop.0+0x14d4>
   11548:	a08717d3          	flt.s	a5,fa4,fs0
   1154c:	04079c63          	bnez	a5,115a4 <_ZL11path_tracerRK10GlobalData.constprop.0+0x14d4>
	return a[0] * b[0] + a[1] * b[1] + a[2] * b[2];
   11550:	00012687          	flw	fa3,0(sp)
	if(t < ray.t_min || t > hit.t) return false;
   11554:	0001a7b7          	lui	a5,0x1a
   11558:	10df7f53          	fmul.s	ft10,ft10,fa3
   1155c:	2507a687          	flw	fa3,592(a5) # 1a250 <__DATA_BEGIN__>
   11560:	f0757543          	fmadd.s	fa0,fa0,ft7,ft10
   11564:	50337343          	fmadd.s	ft6,ft6,ft3,fa0
	float t = rtm::dot(gn, tri.vrts[0] - ray.o) / gn_dot_d;
   11568:	18537353          	fdiv.s	ft6,ft6,ft5
	if(t < ray.t_min || t > hit.t) return false;
   1156c:	a0d317d3          	flt.s	a5,ft6,fa3
   11570:	02079a63          	bnez	a5,115a4 <_ZL11path_tracerRK10GlobalData.constprop.0+0x14d4>
   11574:	01012687          	flw	fa3,16(sp)
   11578:	a06697d3          	flt.s	a5,fa3,ft6
   1157c:	02079463          	bnez	a5,115a4 <_ZL11path_tracerRK10GlobalData.constprop.0+0x14d4>
	hit.bc = rtm::vec2(bc.x, bc.y) / (bc[0] + bc[1] + bc[2]);
   11580:	00f676d3          	fadd.s	fa3,fa2,fa5
	hit.t = t ;
   11584:	00612827          	fsw	ft6,16(sp)
		hit.id = face_index;
   11588:	00058893          	mv	a7,a1
		return true;
   1158c:	00100413          	li	s0,1
	hit.bc = rtm::vec2(bc.x, bc.y) / (bc[0] + bc[1] + bc[2]);
   11590:	00e6f753          	fadd.s	fa4,fa3,fa4
   11594:	18e676d3          	fdiv.s	fa3,fa2,fa4
   11598:	18e7f7d3          	fdiv.s	fa5,fa5,fa4
   1159c:	02d12227          	fsw	fa3,36(sp)
   115a0:	00f12c27          	fsw	fa5,24(sp)
			for(uint32_t i = 0; i <= current_entry.data.lst_chld_ofst; ++i)
   115a4:	00c50513          	add	a0,a0,12
   115a8:	0015879b          	addw	a5,a1,1 # 3f800001 <__global_pointer$+0x3f7e55b1>
   115ac:	e2be10e3          	bne	t3,a1,113cc <_ZL11path_tracerRK10GlobalData.constprop.0+0x12fc>
   115b0:	02812b07          	flw	fs6,40(sp)
   115b4:	02c12507          	flw	fa0,44(sp)
   115b8:	03012707          	flw	fa4,48(sp)
   115bc:	03412187          	flw	ft3,52(sp)
   115c0:	03812687          	flw	fa3,56(sp)
   115c4:	03c12107          	flw	ft2,60(sp)
   115c8:	04012807          	flw	fa6,64(sp)
	while(node_stack_size);
   115cc:	d6071ce3          	bnez	a4,11344 <_ZL11path_tracerRK10GlobalData.constprop.0+0x1274>
   115d0:	01812787          	flw	fa5,24(sp)
   115d4:	21ad0c53          	fmv.s	fs8,fs10
   115d8:	07112623          	sw	a7,108(sp)
   115dc:	06f12427          	fsw	fa5,104(sp)
   115e0:	02412787          	flw	fa5,36(sp)
   115e4:	06f12227          	fsw	fa5,100(sp)
   115e8:	01012787          	flw	fa5,16(sp)
   115ec:	06f12027          	fsw	fa5,96(sp)
   115f0:	978ff06f          	j	10768 <_ZL11path_tracerRK10GlobalData.constprop.0+0x698>
	switch (quad)
   115f4:	00300713          	li	a4,3
   115f8:	32e79c63          	bne	a5,a4,11930 <_ZL11path_tracerRK10GlobalData.constprop.0+0x1860>
	case 3: return cos_32s(2.0f * PI - x);
   115fc:	08b1f1d3          	fsub.s	ft3,ft3,fa1
	return (c1 + x_sq * (c2 + c3 * x_sq));
   11600:	0001a7b7          	lui	a5,0x1a
   11604:	2947a207          	flw	ft4,660(a5) # 1a294 <__DATA_BEGIN__+0x44>
   11608:	0001a7b7          	lui	a5,0x1a
   1160c:	2987a587          	flw	fa1,664(a5) # 1a298 <__DATA_BEGIN__+0x48>
	float x_sq = x * x;
   11610:	1031f1d3          	fmul.s	ft3,ft3,ft3
	return (c1 + x_sq * (c2 + c3 * x_sq));
   11614:	0001a7b7          	lui	a5,0x1a
   11618:	5841f243          	fmadd.s	ft4,ft3,ft4,fa1
   1161c:	29c7a587          	flw	fa1,668(a5) # 1a29c <__DATA_BEGIN__+0x4c>
   11620:	58327243          	fmadd.s	ft4,ft4,ft3,fa1
	return a.e[0] * b.e[0] + a.e[1] * b.e[1];
   11624:	104271d3          	fmul.s	ft3,ft4,ft4
	case 3: return cos_32s(2.0f * PI - x);
   11628:	bc8ff06f          	j	109f0 <_ZL11path_tracerRK10GlobalData.constprop.0+0x920>
	switch (quad)
   1162c:	00300713          	li	a4,3
   11630:	f00007d3          	fmv.w.x	fa5,zero
   11634:	c2e79663          	bne	a5,a4,10a60 <_ZL11path_tracerRK10GlobalData.constprop.0+0x990>
	case 3: return cos_32s(2.0f * PI - x);
   11638:	28c5a787          	flw	fa5,652(a1)
	return (c1 + x_sq * (c2 + c3 * x_sq));
   1163c:	0001a7b7          	lui	a5,0x1a
	case 3: return cos_32s(2.0f * PI - x);
   11640:	08b7f5d3          	fsub.s	fa1,fa5,fa1
	return (c1 + x_sq * (c2 + c3 * x_sq));
   11644:	2947a787          	flw	fa5,660(a5) # 1a294 <__DATA_BEGIN__+0x44>
   11648:	0001a7b7          	lui	a5,0x1a
   1164c:	2987a107          	flw	ft2,664(a5) # 1a298 <__DATA_BEGIN__+0x48>
   11650:	0001a7b7          	lui	a5,0x1a
	float x_sq = x * x;
   11654:	10b5f5d3          	fmul.s	fa1,fa1,fa1
	return (c1 + x_sq * (c2 + c3 * x_sq));
   11658:	10f5f7c3          	fmadd.s	fa5,fa1,fa5,ft2
   1165c:	29c7a107          	flw	ft2,668(a5) # 1a29c <__DATA_BEGIN__+0x4c>
   11660:	10b7f7c3          	fmadd.s	fa5,fa5,fa1,ft2
   11664:	18f7f1c3          	fmadd.s	ft3,fa5,fa5,ft3
	case 3: return cos_32s(2.0f * PI - x);
   11668:	bf8ff06f          	j	10a60 <_ZL11path_tracerRK10GlobalData.constprop.0+0x990>
			move_to_stack(node4, blas[current_entry.data.fst_chld_ind]);
   1166c:	00659593          	sll	a1,a1,0x6
		uint64_t r = ((uint64_t*)&src)[i];
   11670:	00b307b3          	add	a5,t1,a1
   11674:	0287b583          	ld	a1,40(a5)
   11678:	0307b603          	ld	a2,48(a5)
   1167c:	0387b683          	ld	a3,56(a5)
   11680:	0087bf83          	ld	t6,8(a5)
   11684:	0107bf03          	ld	t5,16(a5)
   11688:	0187be83          	ld	t4,24(a5)
   1168c:	0207b803          	ld	a6,32(a5)
		((uint64_t*)&dst)[i] = r;
   11690:	0007b783          	ld	a5,0(a5)
   11694:	010c0513          	add	a0,s8,16
   11698:	004e1e13          	sll	t3,t3,0x4
   1169c:	02bc3423          	sd	a1,40(s8)
   116a0:	02cc3823          	sd	a2,48(s8)
   116a4:	02dc3c23          	sd	a3,56(s8)
			for(uint32_t i = 0; i <= current_entry.data.lst_chld_ofst; ++i)
   116a8:	20c602d3          	fmv.s	ft5,fa2
	return u16 & 0x8000u ? 1.0f : as_f32(((uint32_t)u16 << 8) | 0x3f800000u) - 1.0f;
   116ac:	2584a007          	flw	ft0,600(s1)
   116b0:	25092087          	flw	ft1,592(s2)
		((uint64_t*)&dst)[i] = r;
   116b4:	00fc3023          	sd	a5,0(s8)
   116b8:	01fc3423          	sd	t6,8(s8)
   116bc:	01ec3823          	sd	t5,16(s8)
   116c0:	01dc3c23          	sd	t4,24(s8)
   116c4:	030c3023          	sd	a6,32(s8)
   116c8:	000c0693          	mv	a3,s8
   116cc:	01c50533          	add	a0,a0,t3
	return u16 & 0x8000u ? 1.0f : as_f32(((uint32_t)u16 << 8) | 0x3f800000u) - 1.0f;
   116d0:	3f800637          	lui	a2,0x3f800
   116d4:	0f010593          	add	a1,sp,240
   116d8:	00c0006f          	j	116e4 <_ZL11path_tracerRK10GlobalData.constprop.0+0x1614>
   116dc:	01068693          	add	a3,a3,16
   116e0:	eed506e3          	beq	a0,a3,115cc <_ZL11path_tracerRK10GlobalData.constprop.0+0x14fc>
		aabb.min[i] = u16_to_f32(aabb16.min[i]) * 2.0f - 1.0f;
   116e4:	0006d783          	lhu	a5,0(a3)
   116e8:	0001a837          	lui	a6,0x1a
   116ec:	26082787          	flw	fa5,608(a6) # 1a260 <__DATA_BEGIN__+0x10>
   116f0:	00f7d813          	srl	a6,a5,0xf
   116f4:	00081c63          	bnez	a6,1170c <_ZL11path_tracerRK10GlobalData.constprop.0+0x163c>
   116f8:	0087979b          	sllw	a5,a5,0x8
	return *((float*)&u);
   116fc:	00c7e7b3          	or	a5,a5,a2
	return u16 & 0x8000u ? 1.0f : as_f32(((uint32_t)u16 << 8) | 0x3f800000u) - 1.0f;
   11700:	f00787d3          	fmv.w.x	fa5,a5
   11704:	0807f7d3          	fsub.s	fa5,fa5,ft0
   11708:	00f7f7d3          	fadd.s	fa5,fa5,fa5
		aabb.max[i] = u16_to_f32(aabb16.max[i]) * 2.0f - 1.0f;
   1170c:	0066d783          	lhu	a5,6(a3)
   11710:	0001a837          	lui	a6,0x1a
   11714:	26082887          	flw	fa7,608(a6) # 1a260 <__DATA_BEGIN__+0x10>
   11718:	00f7d813          	srl	a6,a5,0xf
   1171c:	00081c63          	bnez	a6,11734 <_ZL11path_tracerRK10GlobalData.constprop.0+0x1664>
   11720:	0087979b          	sllw	a5,a5,0x8
	return *((float*)&u);
   11724:	00c7e7b3          	or	a5,a5,a2
	return u16 & 0x8000u ? 1.0f : as_f32(((uint32_t)u16 << 8) | 0x3f800000u) - 1.0f;
   11728:	f0078653          	fmv.w.x	fa2,a5
   1172c:	080678d3          	fsub.s	fa7,fa2,ft0
   11730:	0118f8d3          	fadd.s	fa7,fa7,fa7
		aabb.min[i] = u16_to_f32(aabb16.min[i]) * 2.0f - 1.0f;
   11734:	0026d783          	lhu	a5,2(a3)
   11738:	0001a837          	lui	a6,0x1a
   1173c:	26082207          	flw	ft4,608(a6) # 1a260 <__DATA_BEGIN__+0x10>
   11740:	00f7d813          	srl	a6,a5,0xf
   11744:	02081063          	bnez	a6,11764 <_ZL11path_tracerRK10GlobalData.constprop.0+0x1694>
   11748:	0087979b          	sllw	a5,a5,0x8
	return *((float*)&u);
   1174c:	00c7e7b3          	or	a5,a5,a2
	return u16 & 0x8000u ? 1.0f : as_f32(((uint32_t)u16 << 8) | 0x3f800000u) - 1.0f;
   11750:	0001a837          	lui	a6,0x1a
   11754:	f0078653          	fmv.w.x	fa2,a5
   11758:	25882587          	flw	fa1,600(a6) # 1a258 <__DATA_BEGIN__+0x8>
   1175c:	08b67253          	fsub.s	ft4,fa2,fa1
   11760:	00427253          	fadd.s	ft4,ft4,ft4
		aabb.max[i] = u16_to_f32(aabb16.max[i]) * 2.0f - 1.0f;
   11764:	0086d783          	lhu	a5,8(a3)
   11768:	0001a837          	lui	a6,0x1a
   1176c:	26082387          	flw	ft7,608(a6) # 1a260 <__DATA_BEGIN__+0x10>
   11770:	00f7d813          	srl	a6,a5,0xf
   11774:	02081063          	bnez	a6,11794 <_ZL11path_tracerRK10GlobalData.constprop.0+0x16c4>
   11778:	0087979b          	sllw	a5,a5,0x8
	return *((float*)&u);
   1177c:	00c7e7b3          	or	a5,a5,a2
	return u16 & 0x8000u ? 1.0f : as_f32(((uint32_t)u16 << 8) | 0x3f800000u) - 1.0f;
   11780:	0001a837          	lui	a6,0x1a
   11784:	f0078653          	fmv.w.x	fa2,a5
   11788:	25882587          	flw	fa1,600(a6) # 1a258 <__DATA_BEGIN__+0x8>
   1178c:	08b673d3          	fsub.s	ft7,fa2,fa1
   11790:	0073f3d3          	fadd.s	ft7,ft7,ft7
		aabb.min[i] = u16_to_f32(aabb16.min[i]) * 2.0f - 1.0f;
   11794:	0046d783          	lhu	a5,4(a3)
   11798:	0001a837          	lui	a6,0x1a
   1179c:	26082587          	flw	fa1,608(a6) # 1a260 <__DATA_BEGIN__+0x10>
   117a0:	00f7d813          	srl	a6,a5,0xf
   117a4:	02081063          	bnez	a6,117c4 <_ZL11path_tracerRK10GlobalData.constprop.0+0x16f4>
   117a8:	0087979b          	sllw	a5,a5,0x8
	return *((float*)&u);
   117ac:	00c7e7b3          	or	a5,a5,a2
	return u16 & 0x8000u ? 1.0f : as_f32(((uint32_t)u16 << 8) | 0x3f800000u) - 1.0f;
   117b0:	0001a837          	lui	a6,0x1a
   117b4:	f0078653          	fmv.w.x	fa2,a5
   117b8:	25882587          	flw	fa1,600(a6) # 1a258 <__DATA_BEGIN__+0x8>
   117bc:	08b675d3          	fsub.s	fa1,fa2,fa1
   117c0:	00b5f5d3          	fadd.s	fa1,fa1,fa1
		aabb.max[i] = u16_to_f32(aabb16.max[i]) * 2.0f - 1.0f;
   117c4:	00a6d783          	lhu	a5,10(a3)
   117c8:	0001a837          	lui	a6,0x1a
   117cc:	26082307          	flw	ft6,608(a6) # 1a260 <__DATA_BEGIN__+0x10>
   117d0:	00f7d813          	srl	a6,a5,0xf
   117d4:	02081063          	bnez	a6,117f4 <_ZL11path_tracerRK10GlobalData.constprop.0+0x1724>
   117d8:	0087979b          	sllw	a5,a5,0x8
	return *((float*)&u);
   117dc:	00c7e7b3          	or	a5,a5,a2
	return u16 & 0x8000u ? 1.0f : as_f32(((uint32_t)u16 << 8) | 0x3f800000u) - 1.0f;
   117e0:	0001a837          	lui	a6,0x1a
   117e4:	f0078653          	fmv.w.x	fa2,a5
   117e8:	25882307          	flw	ft6,600(a6) # 1a258 <__DATA_BEGIN__+0x8>
   117ec:	08667353          	fsub.s	ft6,fa2,ft6
   117f0:	00637353          	fadd.s	ft6,ft6,ft6
	return vec3(a[0] - b[0], a[1] - b[1], a[2] - b[2]);
   117f4:	00f877d3          	fadd.s	fa5,fa6,fa5
   117f8:	011878d3          	fadd.s	fa7,fa6,fa7
   117fc:	00417253          	fadd.s	ft4,ft2,ft4
   11800:	007173d3          	fadd.s	ft7,ft2,ft7
   11804:	00b6f5d3          	fadd.s	fa1,fa3,fa1
	return vec3(a[0] * b[0], a[1] * b[1], a[2] * b[2]);
   11808:	10a7f7d3          	fmul.s	fa5,fa5,fa0
   1180c:	10a8f8d3          	fmul.s	fa7,fa7,fa0
	return vec3(a[0] - b[0], a[1] - b[1], a[2] - b[2]);
   11810:	0066f353          	fadd.s	ft6,fa3,ft6
	return vec3(a[0] * b[0], a[1] * b[1], a[2] * b[2]);
   11814:	10e3f3d3          	fmul.s	ft7,ft7,fa4
   11818:	10e27253          	fmul.s	ft4,ft4,fa4
	if (tmin > tmax) return ray.t_max;//no hit || behind
   1181c:	0001a7b7          	lui	a5,0x1a
   11820:	29178653          	fmin.s	fa2,fa5,fa7
   11824:	2787ae07          	flw	ft8,632(a5) # 1a278 <__DATA_BEGIN__+0x28>
   11828:	291797d3          	fmax.s	fa5,fa5,fa7
   1182c:	1035f5d3          	fmul.s	fa1,fa1,ft3
   11830:	10337353          	fmul.s	ft6,ft6,ft3
	float tmin = std::max(std::max(tminv.x, tminv.y), std::max(tminv.z, ray.t_min));
   11834:	287208d3          	fmin.s	fa7,ft4,ft7
   11838:	28161653          	fmax.s	fa2,fa2,ft1
	if (tmin > tmax) return ray.t_max;//no hit || behind
   1183c:	28721253          	fmax.s	ft4,ft4,ft7
   11840:	29c787d3          	fmin.s	fa5,fa5,ft8
   11844:	286583d3          	fmin.s	ft7,fa1,ft6
   11848:	29161653          	fmax.s	fa2,fa2,fa7
   1184c:	284787d3          	fmin.s	fa5,fa5,ft4
   11850:	286595d3          	fmax.s	fa1,fa1,ft6
   11854:	28761653          	fmax.s	fa2,fa2,ft7
   11858:	28b787d3          	fmin.s	fa5,fa5,fa1
   1185c:	a0c797d3          	flt.s	a5,fa5,fa2
   11860:	00078463          	beqz	a5,11868 <_ZL11path_tracerRK10GlobalData.constprop.0+0x1798>
   11864:	21ce0653          	fmv.s	fa2,ft8
				new_entry.data = node4.nodes[i].data;
   11868:	00c6a803          	lw	a6,12(a3)
				if(new_entry.t < hit.t) insert(new_entry, node_stack, node_stack_size++);
   1186c:	a05617d3          	flt.s	a5,fa2,ft5
				new_entry.data = node4.nodes[i].data;
   11870:	07012e23          	sw	a6,124(sp)
				if(new_entry.t < hit.t) insert(new_entry, node_stack, node_stack_size++);
   11874:	e60784e3          	beqz	a5,116dc <_ZL11path_tracerRK10GlobalData.constprop.0+0x160c>
   11878:	00170e1b          	addw	t3,a4,1
	for(; j != min; --j)
   1187c:	06070263          	beqz	a4,118e0 <_ZL11path_tracerRK10GlobalData.constprop.0+0x1810>
   11880:	fff7079b          	addw	a5,a4,-1
   11884:	02071813          	sll	a6,a4,0x20
   11888:	01d85713          	srl	a4,a6,0x1d
   1188c:	02079813          	sll	a6,a5,0x20
   11890:	01d85793          	srl	a5,a6,0x1d
   11894:	00058f13          	mv	t5,a1
   11898:	00e58733          	add	a4,a1,a4
   1189c:	00f587b3          	add	a5,a1,a5
   118a0:	0180006f          	j	118b8 <_ZL11path_tracerRK10GlobalData.constprop.0+0x17e8>
		stack[j] = stack[j - 1];
   118a4:	0007b803          	ld	a6,0(a5)
	for(; j != min; --j)
   118a8:	ff870713          	add	a4,a4,-8
		stack[j] = stack[j - 1];
   118ac:	01073423          	sd	a6,8(a4)
	for(; j != min; --j)
   118b0:	02f58a63          	beq	a1,a5,118e4 <_ZL11path_tracerRK10GlobalData.constprop.0+0x1814>
   118b4:	000f8793          	mv	a5,t6
		if(stack[j - 1].t >= entry.t) break;
   118b8:	0007a787          	flw	fa5,0(a5)
		stack[j] = stack[j - 1];
   118bc:	00070e93          	mv	t4,a4
	for(; j != min; --j)
   118c0:	ff878f93          	add	t6,a5,-8
		if(stack[j - 1].t >= entry.t) break;
   118c4:	a0f60853          	fle.s	a6,fa2,fa5
   118c8:	fc080ee3          	beqz	a6,118a4 <_ZL11path_tracerRK10GlobalData.constprop.0+0x17d4>
	stack[j] = entry;
   118cc:	06c12c27          	fsw	fa2,120(sp)
   118d0:	07813783          	ld	a5,120(sp)
				if(new_entry.t < hit.t) insert(new_entry, node_stack, node_stack_size++);
   118d4:	000e0713          	mv	a4,t3
	stack[j] = entry;
   118d8:	00feb023          	sd	a5,0(t4)
}
   118dc:	e01ff06f          	j	116dc <_ZL11path_tracerRK10GlobalData.constprop.0+0x160c>
   118e0:	0f010f13          	add	t5,sp,240
	stack[j] = entry;
   118e4:	06c12c27          	fsw	fa2,120(sp)
   118e8:	07813783          	ld	a5,120(sp)
   118ec:	000f0e93          	mv	t4,t5
				if(new_entry.t < hit.t) insert(new_entry, node_stack, node_stack_size++);
   118f0:	000e0713          	mv	a4,t3
	stack[j] = entry;
   118f4:	00feb023          	sd	a5,0(t4)
   118f8:	de5ff06f          	j	116dc <_ZL11path_tracerRK10GlobalData.constprop.0+0x160c>
   118fc:	10f177d3          	fmul.s	fa5,ft2,fa5
   11900:	1025f5d3          	fmul.s	fa1,fa1,ft2
	return vec3(a[0] - b[0], a[1] - b[1], a[2] - b[2]);
   11904:	3021714b          	fnmsub.s	ft2,ft2,ft2,ft6
	return a[0] * b[0] + a[1] * b[1] + a[2] * b[2];
   11908:	10f7f353          	fmul.s	ft6,fa5,fa5
   1190c:	30b5f343          	fmadd.s	ft6,fa1,fa1,ft6
   11910:	30217343          	fmadd.s	ft6,ft2,ft2,ft6
	asm volatile ("fsqrt.s %[rd], %[rs1]\n\t" : [rd] "=f" (output) : [rs1] "f" (input));
   11914:	58037353          	fsqrt.s	ft6,ft6
	return vec3(a[0] - b[0], a[1] - b[1], a[2] - b[2]);
   11918:	20b595d3          	fneg.s	fa1,fa1
   1191c:	20f797d3          	fneg.s	fa5,fa5
	return vec3(a[0] / b[0], a[1] / b[1], a[2] / b[2]);
   11920:	18617153          	fdiv.s	ft2,ft2,ft6
   11924:	1865f5d3          	fdiv.s	fa1,fa1,ft6
   11928:	1867f7d3          	fdiv.s	fa5,fa5,ft6
	vec3(float e0, float e1, float e2) { e[0] = e0; e[1] = e1; e[2] = e2; }
   1192c:	9bcff06f          	j	10ae8 <_ZL11path_tracerRK10GlobalData.constprop.0+0xa18>
	switch (quad)
   11930:	f00001d3          	fmv.w.x	ft3,zero
   11934:	20318253          	fmv.s	ft4,ft3
   11938:	8b8ff06f          	j	109f0 <_ZL11path_tracerRK10GlobalData.constprop.0+0x920>
   1193c:	000a0413          	mv	s0,s4
   11940:	000a8c13          	mv	s8,s5
   11944:	00813b03          	ld	s6,8(sp)
   11948:	01012987          	flw	fs3,16(sp)
   1194c:	01813a03          	ld	s4,24(sp)
   11950:	00013a83          	ld	s5,0(sp)
   11954:	e15fe06f          	j	10768 <_ZL11path_tracerRK10GlobalData.constprop.0+0x698>
   11958:	00ee8eb3          	add	t4,t4,a4
   1195c:	005e9e93          	sll	t4,t4,0x5
   11960:	00571713          	sll	a4,a4,0x5
   11964:	20f78153          	fmv.s	ft2,fa5
   11968:	00e58733          	add	a4,a1,a4
   1196c:	010e8eb3          	add	t4,t4,a6
   11970:	00c0006f          	j	1197c <_ZL11path_tracerRK10GlobalData.constprop.0+0x18ac>
			for(uint32_t i = 0; i <= current_entry.data.lst_chld_ofst; ++i)
   11974:	02070713          	add	a4,a4,32
   11978:	daee8e63          	beq	t4,a4,10f34 <_ZL11path_tracerRK10GlobalData.constprop.0+0xe64>
		uint64_t r = ((uint64_t*)&src)[i];
   1197c:	00073303          	ld	t1,0(a4)
   11980:	00873883          	ld	a7,8(a4)
   11984:	01073e03          	ld	t3,16(a4)
	return vec3(a[0] - b[0], a[1] - b[1], a[2] - b[2]);
   11988:	00030793          	mv	a5,t1
   1198c:	02035313          	srl	t1,t1,0x20
   11990:	f0030753          	fmv.w.x	fa4,t1
   11994:	0208df93          	srl	t6,a7,0x20
   11998:	f00787d3          	fmv.w.x	fa5,a5
   1199c:	089776d3          	fsub.s	fa3,fa4,fs1
   119a0:	f00f8753          	fmv.w.x	fa4,t6
   119a4:	0987f7d3          	fsub.s	fa5,fa5,fs8
		((uint64_t*)&dst)[i] = r;
   119a8:	01873783          	ld	a5,24(a4)
   119ac:	09877053          	fsub.s	ft0,fa4,fs8
   119b0:	f00e0753          	fmv.w.x	fa4,t3
   119b4:	020e5e13          	srl	t3,t3,0x20
   119b8:	f00e0653          	fmv.w.x	fa2,t3
   119bc:	08977553          	fsub.s	fa0,fa4,fs1
   119c0:	f0088753          	fmv.w.x	fa4,a7
	return vec3(a[0] * b[0], a[1] * b[1], a[2] * b[2]);
   119c4:	1017f7d3          	fmul.s	fa5,fa5,ft1
   119c8:	1126f6d3          	fmul.s	fa3,fa3,fs2
   119cc:	10107053          	fmul.s	ft0,ft0,ft1
   119d0:	11257553          	fmul.s	fa0,fa0,fs2
	return vec3(a[0] - b[0], a[1] - b[1], a[2] - b[2]);
   119d4:	097675d3          	fsub.s	fa1,fa2,fs7
   119d8:	09777753          	fsub.s	fa4,fa4,fs7
   119dc:	0001a8b7          	lui	a7,0x1a
   119e0:	28078653          	fmin.s	fa2,fa5,ft0
   119e4:	28a681d3          	fmin.s	ft3,fa3,fa0
	if (tmin > tmax) return ray.t_max;//no hit || behind
   119e8:	280797d3          	fmax.s	fa5,fa5,ft0
   119ec:	28a696d3          	fmax.s	fa3,fa3,fa0
	return vec3(a[0] * b[0], a[1] * b[1], a[2] * b[2]);
   119f0:	11077753          	fmul.s	fa4,fa4,fa6
   119f4:	1105f5d3          	fmul.s	fa1,fa1,fa6
   119f8:	28d787d3          	fmin.s	fa5,fa5,fa3
   119fc:	2508a687          	flw	fa3,592(a7) # 1a250 <__DATA_BEGIN__>
   11a00:	0001a8b7          	lui	a7,0x1a
   11a04:	28361653          	fmax.s	fa2,fa2,ft3
   11a08:	2788a507          	flw	fa0,632(a7) # 1a278 <__DATA_BEGIN__+0x28>
   11a0c:	00fc3c23          	sd	a5,24(s8)
   11a10:	28d61653          	fmax.s	fa2,fa2,fa3
   11a14:	28a787d3          	fmin.s	fa5,fa5,fa0
   11a18:	28b706d3          	fmin.s	fa3,fa4,fa1
   11a1c:	28b71753          	fmax.s	fa4,fa4,fa1
   11a20:	28d616d3          	fmax.s	fa3,fa2,fa3
   11a24:	28e787d3          	fmin.s	fa5,fa5,fa4
   11a28:	a0d797d3          	flt.s	a5,fa5,fa3
   11a2c:	00078463          	beqz	a5,11a34 <_ZL11path_tracerRK10GlobalData.constprop.0+0x1964>
   11a30:	20a506d3          	fmv.s	fa3,fa0
				new_entry.data = node.data;
   11a34:	018c2883          	lw	a7,24(s8)
				if(new_entry.t < hit.t) insert(new_entry, node_stack, node_stack_size++);
   11a38:	a02697d3          	flt.s	a5,fa3,ft2
				new_entry.data = node.data;
   11a3c:	07112e23          	sw	a7,124(sp)
				if(new_entry.t < hit.t) insert(new_entry, node_stack, node_stack_size++);
   11a40:	f2078ae3          	beqz	a5,11974 <_ZL11path_tracerRK10GlobalData.constprop.0+0x18a4>
   11a44:	0016831b          	addw	t1,a3,1
	for(; j != min; --j)
   11a48:	06068263          	beqz	a3,11aac <_ZL11path_tracerRK10GlobalData.constprop.0+0x19dc>
   11a4c:	fff6879b          	addw	a5,a3,-1
   11a50:	02069893          	sll	a7,a3,0x20
   11a54:	01d8d693          	srl	a3,a7,0x1d
   11a58:	02079893          	sll	a7,a5,0x20
   11a5c:	01d8d793          	srl	a5,a7,0x1d
   11a60:	00050f13          	mv	t5,a0
   11a64:	00d506b3          	add	a3,a0,a3
   11a68:	00f507b3          	add	a5,a0,a5
   11a6c:	0180006f          	j	11a84 <_ZL11path_tracerRK10GlobalData.constprop.0+0x19b4>
		stack[j] = stack[j - 1];
   11a70:	0007b883          	ld	a7,0(a5)
	for(; j != min; --j)
   11a74:	ff868693          	add	a3,a3,-8
		stack[j] = stack[j - 1];
   11a78:	0116b423          	sd	a7,8(a3)
	for(; j != min; --j)
   11a7c:	02f50a63          	beq	a0,a5,11ab0 <_ZL11path_tracerRK10GlobalData.constprop.0+0x19e0>
   11a80:	000f8793          	mv	a5,t6
		if(stack[j - 1].t >= entry.t) break;
   11a84:	0007a787          	flw	fa5,0(a5)
		stack[j] = stack[j - 1];
   11a88:	00068e13          	mv	t3,a3
	for(; j != min; --j)
   11a8c:	ff878f93          	add	t6,a5,-8
		if(stack[j - 1].t >= entry.t) break;
   11a90:	a0f688d3          	fle.s	a7,fa3,fa5
   11a94:	fc088ee3          	beqz	a7,11a70 <_ZL11path_tracerRK10GlobalData.constprop.0+0x19a0>
	stack[j] = entry;
   11a98:	06d12c27          	fsw	fa3,120(sp)
   11a9c:	07813783          	ld	a5,120(sp)
				if(new_entry.t < hit.t) insert(new_entry, node_stack, node_stack_size++);
   11aa0:	00030693          	mv	a3,t1
	stack[j] = entry;
   11aa4:	00fe3023          	sd	a5,0(t3)
}
   11aa8:	ecdff06f          	j	11974 <_ZL11path_tracerRK10GlobalData.constprop.0+0x18a4>
   11aac:	0f010f13          	add	t5,sp,240
	stack[j] = entry;
   11ab0:	06d12c27          	fsw	fa3,120(sp)
   11ab4:	07813783          	ld	a5,120(sp)
   11ab8:	000f0e13          	mv	t3,t5
				if(new_entry.t < hit.t) insert(new_entry, node_stack, node_stack_size++);
   11abc:	00030693          	mv	a3,t1
	stack[j] = entry;
   11ac0:	00fe3023          	sd	a5,0(t3)
   11ac4:	eb1ff06f          	j	11974 <_ZL11path_tracerRK10GlobalData.constprop.0+0x18a4>
	case 2: return -cos_32s(x - PI);
   11ac8:	0001a7b7          	lui	a5,0x1a
   11acc:	2a07a107          	flw	ft2,672(a5) # 1a2a0 <__DATA_BEGIN__+0x50>
	return (c1 + x_sq * (c2 + c3 * x_sq));
   11ad0:	0001a7b7          	lui	a5,0x1a
   11ad4:	29c7a187          	flw	ft3,668(a5) # 1a29c <__DATA_BEGIN__+0x4c>
	case 2: return -cos_32s(x - PI);
   11ad8:	0825f253          	fsub.s	ft4,fa1,ft2
	return (c1 + x_sq * (c2 + c3 * x_sq));
   11adc:	0001a7b7          	lui	a5,0x1a
   11ae0:	2947a107          	flw	ft2,660(a5) # 1a294 <__DATA_BEGIN__+0x44>
   11ae4:	0001a7b7          	lui	a5,0x1a
   11ae8:	2987a587          	flw	fa1,664(a5) # 1a298 <__DATA_BEGIN__+0x48>
	float x_sq = x * x;
   11aec:	10427253          	fmul.s	ft4,ft4,ft4
	return (c1 + x_sq * (c2 + c3 * x_sq));
   11af0:	58227143          	fmadd.s	ft2,ft4,ft2,fa1
   11af4:	182275c3          	fmadd.s	fa1,ft4,ft2,ft3
	case 2: return -cos_32s(x - PI);
   11af8:	1822724f          	fnmadd.s	ft4,ft4,ft2,ft3
   11afc:	10b5f1d3          	fmul.s	ft3,fa1,fa1
   11b00:	ef1fe06f          	j	109f0 <_ZL11path_tracerRK10GlobalData.constprop.0+0x920>
	float x_sq = x * x;
   11b04:	10f7f153          	fmul.s	ft2,fa5,fa5
	return (c1 + x_sq * (c2 + c3 * x_sq));
   11b08:	0001a7b7          	lui	a5,0x1a
   11b0c:	2947a787          	flw	fa5,660(a5) # 1a294 <__DATA_BEGIN__+0x44>
   11b10:	0001a7b7          	lui	a5,0x1a
   11b14:	2987a587          	flw	fa1,664(a5) # 1a298 <__DATA_BEGIN__+0x48>
   11b18:	0001a7b7          	lui	a5,0x1a
   11b1c:	58f177c3          	fmadd.s	fa5,ft2,fa5,fa1
   11b20:	29c7a587          	flw	fa1,668(a5) # 1a29c <__DATA_BEGIN__+0x4c>
   11b24:	58f177c3          	fmadd.s	fa5,ft2,fa5,fa1
   11b28:	18f7f1c3          	fmadd.s	ft3,fa5,fa5,ft3
   11b2c:	f35fe06f          	j	10a60 <_ZL11path_tracerRK10GlobalData.constprop.0+0x990>
	case 2: return -cos_32s(x - PI);
   11b30:	0001a7b7          	lui	a5,0x1a
   11b34:	2a07a787          	flw	fa5,672(a5) # 1a2a0 <__DATA_BEGIN__+0x50>
	return (c1 + x_sq * (c2 + c3 * x_sq));
   11b38:	0001a7b7          	lui	a5,0x1a
   11b3c:	29c7a307          	flw	ft6,668(a5) # 1a29c <__DATA_BEGIN__+0x4c>
	case 2: return -cos_32s(x - PI);
   11b40:	08f5f7d3          	fsub.s	fa5,fa1,fa5
	return (c1 + x_sq * (c2 + c3 * x_sq));
   11b44:	0001a7b7          	lui	a5,0x1a
   11b48:	2947a587          	flw	fa1,660(a5) # 1a294 <__DATA_BEGIN__+0x44>
   11b4c:	0001a7b7          	lui	a5,0x1a
   11b50:	2987a107          	flw	ft2,664(a5) # 1a298 <__DATA_BEGIN__+0x48>
	float x_sq = x * x;
   11b54:	10f7f7d3          	fmul.s	fa5,fa5,fa5
	return (c1 + x_sq * (c2 + c3 * x_sq));
   11b58:	10b7f5c3          	fmadd.s	fa1,fa5,fa1,ft2
   11b5c:	30b7f143          	fmadd.s	ft2,fa5,fa1,ft6
	case 2: return -cos_32s(x - PI);
   11b60:	30b7f7cf          	fnmadd.s	fa5,fa5,fa1,ft6
   11b64:	182171c3          	fmadd.s	ft3,ft2,ft2,ft3
   11b68:	ef9fe06f          	j	10a60 <_ZL11path_tracerRK10GlobalData.constprop.0+0x990>
	float x_sq = x * x;
   11b6c:	10f7f253          	fmul.s	ft4,fa5,fa5
	return (c1 + x_sq * (c2 + c3 * x_sq));
   11b70:	0001a7b7          	lui	a5,0x1a
   11b74:	2947a587          	flw	fa1,660(a5) # 1a294 <__DATA_BEGIN__+0x44>
   11b78:	0001a7b7          	lui	a5,0x1a
   11b7c:	2987a107          	flw	ft2,664(a5) # 1a298 <__DATA_BEGIN__+0x48>
   11b80:	0001a7b7          	lui	a5,0x1a
   11b84:	10b275c3          	fmadd.s	fa1,ft4,fa1,ft2
   11b88:	29c7a107          	flw	ft2,668(a5) # 1a29c <__DATA_BEGIN__+0x4c>
   11b8c:	10b27243          	fmadd.s	ft4,ft4,fa1,ft2
   11b90:	104271d3          	fmul.s	ft3,ft4,ft4
   11b94:	e5dfe06f          	j	109f0 <_ZL11path_tracerRK10GlobalData.constprop.0+0x920>
   11b98:	01812787          	flw	fa5,24(sp)
   11b9c:	21ad0c53          	fmv.s	fs8,fs10
   11ba0:	07112623          	sw	a7,108(sp)
   11ba4:	06f12427          	fsw	fa5,104(sp)
   11ba8:	02412787          	flw	fa5,36(sp)
   11bac:	06c12027          	fsw	fa2,96(sp)
   11bb0:	06f12227          	fsw	fa5,100(sp)
   11bb4:	bb5fe06f          	j	10768 <_ZL11path_tracerRK10GlobalData.constprop.0+0x698>
   11bb8:	000d0d93          	mv	s11,s10
   11bbc:	bb4ff06f          	j	10f70 <_ZL11path_tracerRK10GlobalData.constprop.0+0xea0>

0000000000011bc0 <_Z9intersectRK10GlobalDataRK3RayR3Hit>:
	switch(global_data.config)
   11bc0:	05852703          	lw	a4,88(a0)
{
   11bc4:	00050793          	mv	a5,a0
	switch(global_data.config)
   11bc8:	00200513          	li	a0,2
{
   11bcc:	00060693          	mv	a3,a2
	switch(global_data.config)
   11bd0:	02a70e63          	beq	a4,a0,11c0c <_Z9intersectRK10GlobalDataRK3RayR3Hit+0x4c>
   11bd4:	00e56e63          	bltu	a0,a4,11bf0 <_Z9intersectRK10GlobalDataRK3RayR3Hit+0x30>
   11bd8:	04070863          	beqz	a4,11c28 <_Z9intersectRK10GlobalDataRK3RayR3Hit+0x68>
		case 1: return intersect(global_data.cblas, global_data.tt4, ray, hit); //TTC
   11bdc:	0607b503          	ld	a0,96(a5)
   11be0:	00058613          	mv	a2,a1
   11be4:	06878593          	add	a1,a5,104
   11be8:	00003317          	auipc	t1,0x3
   11bec:	57430067          	jr	1396(t1) # 1515c <_Z9intersectI24TesselationTree4PointersEbPKN3BVH15CompressedNode4ERKT_RK3RayR3Hit>
	switch(global_data.config)
   11bf0:	00300613          	li	a2,3
   11bf4:	02c71663          	bne	a4,a2,11c20 <_Z9intersectRK10GlobalDataRK3RayR3Hit+0x60>
		case 3: return intersect(global_data.blas, global_data.tt1, ray, hit); //TT
   11bf8:	0607b503          	ld	a0,96(a5)
   11bfc:	00058613          	mv	a2,a1
   11c00:	06878593          	add	a1,a5,104
   11c04:	00005317          	auipc	t1,0x5
   11c08:	35030067          	jr	848(t1) # 16f54 <_Z9intersectI24TesselationTree1PointersEbPKN3BVH4NodeERKT_RK3RayR3Hit>
		case 2: return intersect(global_data.blas, global_data.mesh, ray, hit); //BVH
   11c0c:	0607b503          	ld	a0,96(a5)
   11c10:	00058613          	mv	a2,a1
   11c14:	06878593          	add	a1,a5,104
   11c18:	00005317          	auipc	t1,0x5
   11c1c:	dcc30067          	jr	-564(t1) # 169e4 <_Z9intersectI12MeshPointersEbPKN3BVH4NodeERKT_RK3RayR3Hit>
}
   11c20:	00000513          	li	a0,0
   11c24:	00008067          	ret
		case 0: return intersect(global_data.cblas, global_data.mesh, ray, hit); //BVHC
   11c28:	0607b503          	ld	a0,96(a5)
   11c2c:	00058613          	mv	a2,a1
   11c30:	06878593          	add	a1,a5,104
   11c34:	00003317          	auipc	t1,0x3
   11c38:	f1030067          	jr	-240(t1) # 14b44 <_Z9intersectI12MeshPointersEbPKN3BVH15CompressedNode4ERKT_RK3RayR3Hit>

0000000000011c3c <_Z9intersectRK10GlobalDatajRK3RayRS2_R3Hit>:
{
   11c3c:	00050793          	mv	a5,a0
	switch(global_data.config)
   11c40:	05852503          	lw	a0,88(a0)
   11c44:	00200313          	li	t1,2
{
   11c48:	00060893          	mv	a7,a2
   11c4c:	00068613          	mv	a2,a3
   11c50:	00070693          	mv	a3,a4
	switch(global_data.config)
   11c54:	08650463          	beq	a0,t1,11cdc <_Z9intersectRK10GlobalDatajRK3RayRS2_R3Hit+0xa0>
{
   11c58:	fd010113          	add	sp,sp,-48
   11c5c:	02113423          	sd	ra,40(sp)
   11c60:	00058813          	mv	a6,a1
	switch(global_data.config)
   11c64:	02a36a63          	bltu	t1,a0,11c98 <_Z9intersectRK10GlobalDatajRK3RayRS2_R3Hit+0x5c>
   11c68:	08050263          	beqz	a0,11cec <_Z9intersectRK10GlobalDatajRK3RayRS2_R3Hit+0xb0>
			return intersect(global_data.cblas, data4, ray, hit); //TTC
   11c6c:	0607b503          	ld	a0,96(a5)
   11c70:	00810593          	add	a1,sp,8
			TesselationTree4SecondaryRayData data4(global_data.tt4, last_patch_index, last_ray);
   11c74:	06878793          	add	a5,a5,104
   11c78:	00f13423          	sd	a5,8(sp)
   11c7c:	01113823          	sd	a7,16(sp)
   11c80:	01012c23          	sw	a6,24(sp)
			return intersect(global_data.cblas, data4, ray, hit); //TTC
   11c84:	00006097          	auipc	ra,0x6
   11c88:	794080e7          	jalr	1940(ra) # 18418 <_Z9intersectI32TesselationTree4SecondaryRayDataEbPKN3BVH15CompressedNode4ERKT_RK3RayR3Hit>
		}
	}
	return false;
}
   11c8c:	02813083          	ld	ra,40(sp)
   11c90:	03010113          	add	sp,sp,48
   11c94:	00008067          	ret
	switch(global_data.config)
   11c98:	00300713          	li	a4,3
   11c9c:	02e51863          	bne	a0,a4,11ccc <_Z9intersectRK10GlobalDatajRK3RayRS2_R3Hit+0x90>
 			return intersect(global_data.blas, data1, ray, hit); //TT
   11ca0:	0607b503          	ld	a0,96(a5)
   11ca4:	00810593          	add	a1,sp,8
			TesselationTree1SecondaryRayData data1(global_data.tt1, last_patch_index, last_ray);
   11ca8:	06878793          	add	a5,a5,104
   11cac:	00f13423          	sd	a5,8(sp)
   11cb0:	01113823          	sd	a7,16(sp)
   11cb4:	01012c23          	sw	a6,24(sp)
 			return intersect(global_data.blas, data1, ray, hit); //TT
   11cb8:	00007097          	auipc	ra,0x7
   11cbc:	b54080e7          	jalr	-1196(ra) # 1880c <_Z9intersectI32TesselationTree1SecondaryRayDataEbPKN3BVH4NodeERKT_RK3RayR3Hit>
}
   11cc0:	02813083          	ld	ra,40(sp)
   11cc4:	03010113          	add	sp,sp,48
   11cc8:	00008067          	ret
   11ccc:	02813083          	ld	ra,40(sp)
	switch(global_data.config)
   11cd0:	00000513          	li	a0,0
}
   11cd4:	03010113          	add	sp,sp,48
   11cd8:	00008067          	ret
			return intersect(global_data.blas, global_data.mesh, ray, hit); //BVH
   11cdc:	0607b503          	ld	a0,96(a5)
   11ce0:	06878593          	add	a1,a5,104
   11ce4:	00005317          	auipc	t1,0x5
   11ce8:	d0030067          	jr	-768(t1) # 169e4 <_Z9intersectI12MeshPointersEbPKN3BVH4NodeERKT_RK3RayR3Hit>
}
   11cec:	02813083          	ld	ra,40(sp)
			return intersect(global_data.cblas, global_data.mesh, ray, hit); //BVHC
   11cf0:	0607b503          	ld	a0,96(a5)
   11cf4:	06878593          	add	a1,a5,104
}
   11cf8:	03010113          	add	sp,sp,48
			return intersect(global_data.cblas, global_data.mesh, ray, hit); //BVHC
   11cfc:	00003317          	auipc	t1,0x3
   11d00:	e4830067          	jr	-440(t1) # 14b44 <_Z9intersectI12MeshPointersEbPKN3BVH15CompressedNode4ERKT_RK3RayR3Hit>

0000000000011d04 <_Z9intersectjRK32TesselationTree1SecondaryRayDataRK3RayR3Hit>:
		std::vector<BuildObject> build_objects;
		for(uint i = 0; i < mesh.size(); ++i)
			build_objects.push_back(mesh.get_build_object(i));

		blas.build(build_objects);
		mesh.reorder(build_objects);
   11d04:	ad010113          	add	sp,sp,-1328
   11d08:	4da13823          	sd	s10,1232(sp)
		global_data.tt1.triangles = tt1.triangles.data();
	}

	global_data.ni = mesh.normal_indices.data();
	global_data.normals = mesh.normals.data();

   11d0c:	0005bd03          	ld	s10,0(a1)
		mesh.reorder(build_objects);
   11d10:	51213823          	sd	s2,1296(sp)
   11d14:	47f10793          	add	a5,sp,1151

   11d18:	000d3903          	ld	s2,0(s10)
		mesh.reorder(build_objects);
   11d1c:	fe07f713          	and	a4,a5,-32
		bool child_transformed;
	}
	tri_stack[8];

	TesselationTree1::Header header;
	move_to_stack(header, data.tes_tree.headers[patch_index]);
   11d20:	02051793          	sll	a5,a0,0x20
{
   11d24:	4db13423          	sd	s11,1224(sp)
   11d28:	00058d93          	mv	s11,a1
	move_to_stack(header, data.tes_tree.headers[patch_index]);
   11d2c:	01b7d593          	srl	a1,a5,0x1b
{
   11d30:	52813023          	sd	s0,1312(sp)
   11d34:	51413023          	sd	s4,1280(sp)
   11d38:	00060413          	mv	s0,a2
   11d3c:	00050a13          	mv	s4,a0
   11d40:	02000613          	li	a2,32
   11d44:	00070513          	mv	a0,a4
   11d48:	00b905b3          	add	a1,s2,a1
   11d4c:	50913c23          	sd	s1,1304(sp)
   11d50:	4f813023          	sd	s8,1248(sp)
   11d54:	4b312827          	fsw	fs3,1200(sp)
   11d58:	4b412627          	fsw	fs4,1196(sp)
   11d5c:	4b512427          	fsw	fs5,1192(sp)
   11d60:	4b712027          	fsw	fs7,1184(sp)
   11d64:	49812e27          	fsw	fs8,1180(sp)
   11d68:	49b12827          	fsw	fs11,1168(sp)
   11d6c:	52113423          	sd	ra,1320(sp)
   11d70:	51313423          	sd	s3,1288(sp)
   11d74:	4f513c23          	sd	s5,1272(sp)
   11d78:	4f613823          	sd	s6,1264(sp)
   11d7c:	4f713423          	sd	s7,1256(sp)
   11d80:	4d913c23          	sd	s9,1240(sp)
   11d84:	4a812e27          	fsw	fs0,1212(sp)
   11d88:	4a912c27          	fsw	fs1,1208(sp)
   11d8c:	4b212a27          	fsw	fs2,1204(sp)
   11d90:	4b612227          	fsw	fs6,1188(sp)
   11d94:	49912c27          	fsw	fs9,1176(sp)
   11d98:	49a12a27          	fsw	fs10,1172(sp)
   11d9c:	00068493          	mv	s1,a3
	return vec3(a[0] / b[0], a[1] / b[1], a[2] / b[2]);
   11da0:	0001ac37          	lui	s8,0x1a
   11da4:	00007097          	auipc	ra,0x7
   11da8:	dec080e7          	jalr	-532(ra) # 18b90 <memcpy>
   11dac:	258c2087          	flw	ft1,600(s8) # 1a258 <__DATA_BEGIN__+0x8>
	inline float operator[](int i) const { return e[i]; }
   11db0:	01042c07          	flw	fs8,16(s0)
   11db4:	01442987          	flw	fs3,20(s0)

	glm::vec3 inv_d = glm::vec3(1.0f) / ray.d;
	float max_db_over_max_error = header.max_db * ray.rcp_max_error;
	const TesselationTree1::Node* nodes = &data.tes_tree.nodes[header.root_node_offset];
   11db8:	01456783          	lwu	a5,20(a0)
	return vec3(a[0] / b[0], a[1] / b[1], a[2] / b[2]);
   11dbc:	1980f153          	fdiv.s	ft2,ft1,fs8
   11dc0:	00050713          	mv	a4,a0
   11dc4:	008d3503          	ld	a0,8(s10)
   11dc8:	06f13423          	sd	a5,104(sp)
   11dcc:	00579793          	sll	a5,a5,0x5
   11dd0:	00f50533          	add	a0,a0,a5
	inline float operator[](int i) const { return e[i]; }
   11dd4:	00042b87          	flw	fs7,0(s0)
	return vec3(a[0] - b[0], a[1] - b[1], a[2] - b[2]);
   11dd8:	00052787          	flw	fa5,0(a0)
   11ddc:	00c52007          	flw	ft0,12(a0)
	inline float operator[](int i) const { return e[i]; }
   11de0:	01842d87          	flw	fs11,24(s0)
	return vec3(a[0] - b[0], a[1] - b[1], a[2] - b[2]);
   11de4:	0977f7d3          	fsub.s	fa5,fa5,fs7
   11de8:	09707053          	fsub.s	ft0,ft0,fs7
	inline float operator[](int i) const { return e[i]; }
   11dec:	00442a07          	flw	fs4,4(s0)
	return vec3(a[0] - b[0], a[1] - b[1], a[2] - b[2]);
   11df0:	00452707          	flw	fa4,4(a0)
   11df4:	01052507          	flw	fa0,16(a0)
	inline float operator[](int i) const { return e[i]; }
   11df8:	00842a87          	flw	fs5,8(s0)
	return vec3(a[0] - b[0], a[1] - b[1], a[2] - b[2]);
   11dfc:	09477753          	fsub.s	fa4,fa4,fs4
   11e00:	09457553          	fsub.s	fa0,fa0,fs4
   11e04:	00852687          	flw	fa3,8(a0)
	float max_db_over_max_error = header.max_db * ray.rcp_max_error;
   11e08:	00c72287          	flw	ft5,12(a4)
	return vec3(a[0] / b[0], a[1] / b[1], a[2] / b[2]);
   11e0c:	1930f353          	fdiv.s	ft6,ft1,fs3
	return vec3(a[0] * b[0], a[1] * b[1], a[2] * b[2]);
   11e10:	10207053          	fmul.s	ft0,ft0,ft2
   11e14:	1027f7d3          	fmul.s	fa5,fa5,ft2
   11e18:	02842207          	flw	ft4,40(s0)
	return vec3(a[0] - b[0], a[1] - b[1], a[2] - b[2]);
   11e1c:	0956f653          	fsub.s	fa2,fa3,fs5
   11e20:	01452587          	flw	fa1,20(a0)
   11e24:	00c42187          	flw	ft3,12(s0)
   11e28:	280786d3          	fmin.s	fa3,fa5,ft0
	if (tmin > tmax) return ray.t_max;//no hit || behind
   11e2c:	280797d3          	fmax.s	fa5,fa5,ft0
   11e30:	1042f053          	fmul.s	ft0,ft5,ft4
   11e34:	0955f5d3          	fsub.s	fa1,fa1,fs5
	return vec3(a[0] / b[0], a[1] / b[1], a[2] / b[2]);
   11e38:	08212e27          	fsw	ft2,156(sp)
    min(const _Tp& __a, const _Tp& __b)
    {
      // concept requirements
      __glibcxx_function_requires(_LessThanComparableConcept<_Tp>)
      //return __b < __a ? __b : __a;
      if (__b < __a)
   11e3c:	01c42107          	flw	ft2,28(s0)
	const CompactTri* triangles = &data.tes_tree.triangles[header.root_node_offset];
   11e40:	018d3783          	ld	a5,24(s10)
	float max_db_over_max_error = header.max_db * ray.rcp_max_error;
   11e44:	04012627          	fsw	ft0,76(sp)
	const CompactTri* triangles = &data.tes_tree.triangles[header.root_node_offset];
   11e48:	06f13823          	sd	a5,112(sp)
   11e4c:	19b0f0d3          	fdiv.s	ft1,ft1,fs11
	return vec3(a[0] * b[0], a[1] * b[1], a[2] * b[2]);
   11e50:	10677753          	fmul.s	fa4,fa4,ft6
   11e54:	10657553          	fmul.s	fa0,fa0,ft6
	return vec3(a[0] / b[0], a[1] / b[1], a[2] / b[2]);
   11e58:	08612c27          	fsw	ft6,152(sp)
	inline float operator[](int i) const { return e[i]; }
   11e5c:	28a70053          	fmin.s	ft0,fa4,fa0
   11e60:	28a71753          	fmax.s	fa4,fa4,fa0
   11e64:	280696d3          	fmax.s	fa3,fa3,ft0
   11e68:	28e787d3          	fmin.s	fa5,fa5,fa4
   11e6c:	28369753          	fmax.s	fa4,fa3,ft3
   11e70:	282787d3          	fmin.s	fa5,fa5,ft2
	return vec3(a[0] * b[0], a[1] * b[1], a[2] * b[2]);
   11e74:	101676d3          	fmul.s	fa3,fa2,ft1
   11e78:	1015f653          	fmul.s	fa2,fa1,ft1
	return vec3(a[0] / b[0], a[1] / b[1], a[2] / b[2]);
   11e7c:	08112a27          	fsw	ft1,148(sp)
	float tmin = std::max(std::max(tminv.x, tminv.y), std::max(tminv.z, ray.t_min));
   11e80:	28c685d3          	fmin.s	fa1,fa3,fa2
	if (tmin > tmax) return ray.t_max;//no hit || behind
   11e84:	28c696d3          	fmax.s	fa3,fa3,fa2
   11e88:	28b71753          	fmax.s	fa4,fa4,fa1
   11e8c:	28d787d3          	fmin.s	fa5,fa5,fa3
   11e90:	a0e797d3          	flt.s	a5,fa5,fa4
   11e94:	00079463          	bnez	a5,11e9c <_Z9intersectjRK32TesselationTree1SecondaryRayDataRK3RayR3Hit+0x198>
	return tmin;
   11e98:	20e70153          	fmv.s	ft2,fa4

	uint32_t node_stack_size = 1u;
	node_stack[0].t = intersect(nodes[0].aabb, ray, inv_d);
	node_stack[0].dbs = nodes[0].dbs;
   11e9c:	01852783          	lw	a5,24(a0)
	node_stack[0].node_index = 0;
	node_stack[0].lod = 0;
	node_stack[0].tri_type = 0;

	glm::uvec3 previous_patch_indices(0);
	if(data.last_patch_index != ~0) previous_patch_indices  = data.tes_tree.headers[data.last_patch_index].vi;
   11ea0:	010daf83          	lw	t6,16(s11)
	node_stack[0].t = intersect(nodes[0].aabb, ray, inv_d);
   11ea4:	0e212027          	fsw	ft2,224(sp)
	node_stack[0].dbs = nodes[0].dbs;
   11ea8:	0ef12423          	sw	a5,232(sp)
	node_stack[0].node_index = 0;
   11eac:	0e012223          	sw	zero,228(sp)
	if(data.last_patch_index != ~0) previous_patch_indices  = data.tes_tree.headers[data.last_patch_index].vi;
   11eb0:	fff00793          	li	a5,-1
   11eb4:	00ff9463          	bne	t6,a5,11ebc <_Z9intersectjRK32TesselationTree1SecondaryRayDataRK3RayR3Hit+0x1b8>
   11eb8:	20c0106f          	j	130c4 <_Z9intersectjRK32TesselationTree1SecondaryRayDataRK3RayR3Hit+0x13c0>
   11ebc:	020f9693          	sll	a3,t6,0x20
   11ec0:	01b6d793          	srl	a5,a3,0x1b
   11ec4:	00f907b3          	add	a5,s2,a5
   11ec8:	0007a683          	lw	a3,0(a5)
   11ecc:	04d13c23          	sd	a3,88(sp)
   11ed0:	0047a683          	lw	a3,4(a5)
   11ed4:	0087a783          	lw	a5,8(a5)
   11ed8:	08d13423          	sd	a3,136(sp)
   11edc:	06f13c23          	sd	a5,120(sp)
		uint32_t lod = current_node_entry.lod;
		uint32_t tri_type = current_node_entry.tri_type;

		if(lod == 0)
		{
			tri_stack[lod].tri = Triangle(data.tes_tree.vertices[header.vi[0]], data.tes_tree.vertices[header.vi[1]], data.tes_tree.vertices[header.vi[2]]);
   11ee0:	00872c83          	lw	s9,8(a4)
   11ee4:	00472783          	lw	a5,4(a4)
   11ee8:	00072e83          	lw	t4,0(a4)
   11eec:	020c9813          	sll	a6,s9,0x20
   11ef0:	02085813          	srl	a6,a6,0x20
   11ef4:	02079893          	sll	a7,a5,0x20
   11ef8:	0af13c23          	sd	a5,184(sp)
   11efc:	00181793          	sll	a5,a6,0x1
   11f00:	010787b3          	add	a5,a5,a6
   11f04:	020e9313          	sll	t1,t4,0x20
inline uint find_shared_edge(const glm::uvec3& crnt_ptch_inds, const glm::uvec3& prev_ptch_inds)
{
	uint32_t match_mask = 0;
	for(uint i = 0; i < 3; ++i)
		for(uint j = 0; j < 3; ++j)
			if(crnt_ptch_inds[i] == prev_ptch_inds[j])
   11f08:	07813803          	ld	a6,120(sp)
   11f0c:	0208d893          	srl	a7,a7,0x20
   11f10:	02035313          	srl	t1,t1,0x20
	e[0] *= v[0];
   11f14:	0001ae37          	lui	t3,0x1a
   11f18:	25ce2787          	flw	fa5,604(t3) # 1a25c <__DATA_BEGIN__+0xc>
   11f1c:	00189693          	sll	a3,a7,0x1

		//if the next LOD is the leaf intersect othewise push the child nodes onto the stack
		uint32_t next_level = lod + 1;
		uint32_t first_child_index = node_index << 2; //compute first child idnex
		
		if(next_level == header.last_lod) //leaf node
   11f20:	01072603          	lw	a2,16(a4)
			tri_stack[lod].tri = Triangle(data.tes_tree.vertices[header.vi[0]], data.tes_tree.vertices[header.vi[1]], data.tes_tree.vertices[header.vi[2]]);
   11f24:	00131593          	sll	a1,t1,0x1
   11f28:	011686b3          	add	a3,a3,a7
   11f2c:	410e8833          	sub	a6,t4,a6
   11f30:	00279793          	sll	a5,a5,0x2
   11f34:	006585b3          	add	a1,a1,t1
		if(next_level == header.last_lod) //leaf node
   11f38:	01812627          	fsw	fs8,12(sp)
    max(const _Tp& __a, const _Tp& __b)
    {
      // concept requirements
      __glibcxx_function_requires(_LessThanComparableConcept<_Tp>)
      //return  __a < __b ? __b : __a;
      if (__a < __b)
   11f3c:	258c2d07          	flw	fs10,600(s8)
   11f40:	217b8c53          	fmv.s	fs8,fs7
	return vec3(a[0] - b[0], a[1] - b[1], a[2] - b[2]);
   11f44:	0001ae37          	lui	t3,0x1a
			tri_stack[lod].tri = Triangle(data.tes_tree.vertices[header.vi[0]], data.tes_tree.vertices[header.vi[1]], data.tes_tree.vertices[header.vi[2]]);
   11f48:	00259593          	sll	a1,a1,0x2
   11f4c:	00269693          	sll	a3,a3,0x2
   11f50:	0af13823          	sd	a5,176(sp)
   11f54:	00183793          	seqz	a5,a6
   11f58:	268e2c87          	flw	fs9,616(t3) # 1a268 <__DATA_BEGIN__+0x18>
   11f5c:	09d13023          	sd	t4,128(sp)
	return (u & (1 << 23)) ? 1.0 : as_f32(u | 0x3f800000) * 2.0f - 3.0f;
   11f60:	0001abb7          	lui	s7,0x1a
   11f64:	0001ab37          	lui	s6,0x1a
	e[0] *= v[0];
   11f68:	08f12827          	fsw	fa5,144(sp)
   11f6c:	0ab13023          	sd	a1,160(sp)
   11f70:	0ad13423          	sd	a3,168(sp)
   11f74:	0cf13023          	sd	a5,192(sp)
		if(next_level == header.last_lod) //leaf node
   11f78:	fff00893          	li	a7,-1
   11f7c:	00100e13          	li	t3,1
   11f80:	000c8813          	mv	a6,s9
   11f84:	01312427          	fsw	fs3,8(sp)
   11f88:	0ce13423          	sd	a4,200(sp)
   11f8c:	05b13823          	sd	s11,80(sp)
   11f90:	04c13023          	sd	a2,64(sp)
		const NodeStackEntry current_node_entry = node_stack[--node_stack_size];
   11f94:	fffe031b          	addw	t1,t3,-1
   11f98:	02031793          	sll	a5,t1,0x20
   11f9c:	0207d793          	srl	a5,a5,0x20
   11fa0:	00179713          	sll	a4,a5,0x1
   11fa4:	00f70733          	add	a4,a4,a5
   11fa8:	00271713          	sll	a4,a4,0x2
   11fac:	3c070793          	add	a5,a4,960
   11fb0:	0d010713          	add	a4,sp,208
   11fb4:	00e78733          	add	a4,a5,a4
   11fb8:	c5072783          	lw	a5,-944(a4)
		if(current_node_entry.t >= hit.t) continue;
   11fbc:	0004ab07          	flw	fs6,0(s1)
		const NodeStackEntry current_node_entry = node_stack[--node_stack_size];
   11fc0:	c5472583          	lw	a1,-940(a4)
		if(current_node_entry.t >= hit.t) continue;
   11fc4:	f00787d3          	fmv.w.x	fa5,a5
		const NodeStackEntry current_node_entry = node_stack[--node_stack_size];
   11fc8:	c5872683          	lw	a3,-936(a4)
   11fcc:	0cf12823          	sw	a5,208(sp)
		if(current_node_entry.t >= hit.t) continue;
   11fd0:	a0fb0753          	fle.s	a4,fs6,fa5
		const NodeStackEntry current_node_entry = node_stack[--node_stack_size];
   11fd4:	0cb12a23          	sw	a1,212(sp)
   11fd8:	0cd12c23          	sw	a3,216(sp)
		if(current_node_entry.t >= hit.t) continue;
   11fdc:	340710e3          	bnez	a4,12b1c <_Z9intersectjRK32TesselationTree1SecondaryRayDataRK3RayR3Hit+0xe18>
		uint32_t node_index = current_node_entry.node_index;
   11fe0:	0d013683          	ld	a3,208(sp)
   11fe4:	04c00593          	li	a1,76

#include "rtm.hpp"
#include "aabb.hpp"
#include "ray.hpp"

class Triangle
   11fe8:	20010713          	add	a4,sp,512
		uint32_t lod = current_node_entry.lod;
   11fec:	03a6de93          	srl	t4,a3,0x3a
   11ff0:	00fef293          	and	t0,t4,15
   11ff4:	02b282b3          	mul	t0,t0,a1
		uint32_t node_index = current_node_entry.node_index;
   11ff8:	00669f13          	sll	t5,a3,0x6
		uint32_t lod = current_node_entry.lod;
   11ffc:	00fefe93          	and	t4,t4,15
		uint32_t dbs = current_node_entry.dbs;
   12000:	0d812783          	lw	a5,216(sp)
		uint32_t node_index = current_node_entry.node_index;
   12004:	026f5f13          	srl	t5,t5,0x26
		uint32_t tri_type = current_node_entry.tri_type;
   12008:	03e6d693          	srl	a3,a3,0x3e
   1200c:	00570733          	add	a4,a4,t0
		if(lod == 0)
   12010:	580e9ce3          	bnez	t4,12da8 <_Z9intersectjRK32TesselationTree1SecondaryRayDataRK3RayR3Hit+0x10a4>
			tri_stack[lod].tri = Triangle(data.tes_tree.vertices[header.vi[0]], data.tes_tree.vertices[header.vi[1]], data.tes_tree.vertices[header.vi[2]]);
   12014:	010d3683          	ld	a3,16(s10)
   12018:	0a013603          	ld	a2,160(sp)
			if(data.last_patch_index != ~0) tri_stack[0].shared_edge = find_shared_edge(header.vi, previous_patch_indices);
   1201c:	fff00913          	li	s2,-1
			tri_stack[lod].tri = Triangle(data.tes_tree.vertices[header.vi[0]], data.tes_tree.vertices[header.vi[1]], data.tes_tree.vertices[header.vi[2]]);
   12020:	00c685b3          	add	a1,a3,a2
   12024:	0a813603          	ld	a2,168(sp)
	inline float operator[](int i) const { return e[i]; }
   12028:	0045a107          	flw	ft2,4(a1)
   1202c:	0085a087          	flw	ft1,8(a1)
   12030:	00c683b3          	add	t2,a3,a2
   12034:	0b013603          	ld	a2,176(sp)
   12038:	0003a507          	flw	fa0,0(t2)
   1203c:	0043a587          	flw	fa1,4(t2)
   12040:	00c686b3          	add	a3,a3,a2
   12044:	0083a607          	flw	fa2,8(t2)
   12048:	0006a687          	flw	fa3,0(a3)
   1204c:	0046a707          	flw	fa4,4(a3)
   12050:	0086a787          	flw	fa5,8(a3)
	e[0] = v[0];
   12054:	0005a007          	flw	ft0,0(a1)
	e[1] = v[1];
   12058:	20212227          	fsw	ft2,516(sp)
	e[2] = v[2];
   1205c:	20112427          	fsw	ft1,520(sp)
	e[0] = v[0];
   12060:	20012027          	fsw	ft0,512(sp)
   12064:	20a12627          	fsw	fa0,524(sp)
	e[1] = v[1];
   12068:	20b12827          	fsw	fa1,528(sp)
	e[2] = v[2];
   1206c:	20c12a27          	fsw	fa2,532(sp)
	e[0] = v[0];
   12070:	20d12c27          	fsw	fa3,536(sp)
	e[1] = v[1];
   12074:	20e12e27          	fsw	fa4,540(sp)
	e[2] = v[2];
   12078:	22f12027          	fsw	fa5,544(sp)
			if(data.last_patch_index != ~0) tri_stack[0].shared_edge = find_shared_edge(header.vi, previous_patch_indices);
   1207c:	732f88e3          	beq	t6,s2,12fac <_Z9intersectjRK32TesselationTree1SecondaryRayDataRK3RayR3Hit+0x12a8>
   12080:	08013683          	ld	a3,128(sp)
   12084:	05813603          	ld	a2,88(sp)
   12088:	00c69463          	bne	a3,a2,12090 <_Z9intersectjRK32TesselationTree1SecondaryRayDataRK3RayR3Hit+0x38c>
   1208c:	0bc0106f          	j	13148 <_Z9intersectjRK32TesselationTree1SecondaryRayDataRK3RayR3Hit+0x1444>
   12090:	08813603          	ld	a2,136(sp)
   12094:	00c69463          	bne	a3,a2,1209c <_Z9intersectjRK32TesselationTree1SecondaryRayDataRK3RayR3Hit+0x398>
   12098:	0b00106f          	j	13148 <_Z9intersectjRK32TesselationTree1SecondaryRayDataRK3RayR3Hit+0x1444>
   1209c:	0b813683          	ld	a3,184(sp)
   120a0:	05813583          	ld	a1,88(sp)
   120a4:	00b69463          	bne	a3,a1,120ac <_Z9intersectjRK32TesselationTree1SecondaryRayDataRK3RayR3Hit+0x3a8>
   120a8:	02c0106f          	j	130d4 <_Z9intersectjRK32TesselationTree1SecondaryRayDataRK3RayR3Hit+0x13d0>
   120ac:	00c69463          	bne	a3,a2,120b4 <_Z9intersectjRK32TesselationTree1SecondaryRayDataRK3RayR3Hit+0x3b0>
   120b0:	0240106f          	j	130d4 <_Z9intersectjRK32TesselationTree1SecondaryRayDataRK3RayR3Hit+0x13d0>
   120b4:	07813603          	ld	a2,120(sp)
   120b8:	00c69463          	bne	a3,a2,120c0 <_Z9intersectjRK32TesselationTree1SecondaryRayDataRK3RayR3Hit+0x3bc>
   120bc:	0180106f          	j	130d4 <_Z9intersectjRK32TesselationTree1SecondaryRayDataRK3RayR3Hit+0x13d0>
	uint32_t match_mask = 0;
   120c0:	0c013583          	ld	a1,192(sp)
			if(crnt_ptch_inds[i] == prev_ptch_inds[j])
   120c4:	05813683          	ld	a3,88(sp)
   120c8:	00d81463          	bne	a6,a3,120d0 <_Z9intersectjRK32TesselationTree1SecondaryRayDataRK3RayR3Hit+0x3cc>
   120cc:	05c0106f          	j	13128 <_Z9intersectjRK32TesselationTree1SecondaryRayDataRK3RayR3Hit+0x1424>
   120d0:	08813683          	ld	a3,136(sp)
   120d4:	00d81463          	bne	a6,a3,120dc <_Z9intersectjRK32TesselationTree1SecondaryRayDataRK3RayR3Hit+0x3d8>
   120d8:	0500106f          	j	13128 <_Z9intersectjRK32TesselationTree1SecondaryRayDataRK3RayR3Hit+0x1424>
   120dc:	07813603          	ld	a2,120(sp)
   120e0:	00300693          	li	a3,3
   120e4:	00c81463          	bne	a6,a2,120ec <_Z9intersectjRK32TesselationTree1SecondaryRayDataRK3RayR3Hit+0x3e8>
   120e8:	0400106f          	j	13128 <_Z9intersectjRK32TesselationTree1SecondaryRayDataRK3RayR3Hit+0x1424>
			else                            tri_stack[0].shared_edge = 3;
   120ec:	24d10423          	sb	a3,584(sp)
		bool edge_mask[3] = {patch_index == data.last_patch_index || tri_stack[lod].shared_edge == 0, patch_index == data.last_patch_index || tri_stack[lod].shared_edge == 1, patch_index == data.last_patch_index || tri_stack[lod].shared_edge == 2};
   120f0:	57fa08e3          	beq	s4,t6,12e60 <_Z9intersectjRK32TesselationTree1SecondaryRayDataRK3RayR3Hit+0x115c>
   120f4:	04c00693          	li	a3,76
   120f8:	02de86b3          	mul	a3,t4,a3
   120fc:	0d010613          	add	a2,sp,208
   12100:	3c068693          	add	a3,a3,960
   12104:	00c686b3          	add	a3,a3,a2
   12108:	db86c583          	lbu	a1,-584(a3)
   1210c:	fff58a93          	add	s5,a1,-1
   12110:	ffe58993          	add	s3,a1,-2
   12114:	001aba93          	seqz	s5,s5
   12118:	0015b593          	seqz	a1,a1
   1211c:	0019b993          	seqz	s3,s3
		glm::vec3 edge_states = evalute_deformation_bounds(dbs, max_db_over_max_error, tri_stack[lod].tri, data.last_ray, ray, edge_mask);
   12120:	05013683          	ld	a3,80(sp)
	inline float operator[](int i) const { return e[i]; }
   12124:	01072487          	flw	fs1,16(a4)
   12128:	00472107          	flw	ft2,4(a4)
   1212c:	0086b683          	ld	a3,8(a3)
   12130:	01c72507          	flw	fa0,28(a4)
	return vec3(a[0] - b[0], a[1] - b[1], a[2] - b[2]);
   12134:	0944f253          	fsub.s	ft4,fs1,fs4
	inline float operator[](int i) const { return e[i]; }
   12138:	0046a787          	flw	fa5,4(a3)
	return a[0] * b[0] + a[1] * b[1] + a[2] * b[2];
   1213c:	00812087          	flw	ft1,8(sp)
	inline float operator[](int i) const { return e[i]; }
   12140:	00c72987          	flw	fs3,12(a4)
	return vec3(a[0] - b[0], a[1] - b[1], a[2] - b[2]);
   12144:	08f172d3          	fsub.s	ft5,ft2,fa5
   12148:	08f4f6d3          	fsub.s	fa3,fs1,fa5
   1214c:	08f577d3          	fsub.s	fa5,fa0,fa5
	inline float operator[](int i) const { return e[i]; }
   12150:	0146a587          	flw	fa1,20(a3)
	return vec3(a[0] - b[0], a[1] - b[1], a[2] - b[2]);
   12154:	0989ffd3          	fsub.s	ft11,fs3,fs8
	return a[0] * b[0] + a[1] * b[1] + a[2] * b[2];
   12158:	1040f853          	fmul.s	fa6,ft1,ft4
   1215c:	00c12e87          	flw	ft9,12(sp)
   12160:	10b2f2d3          	fmul.s	ft5,ft5,fa1
   12164:	10b6f6d3          	fmul.s	fa3,fa3,fa1
   12168:	10b7f7d3          	fmul.s	fa5,fa5,fa1
	inline float operator[](int i) const { return e[i]; }
   1216c:	01872007          	flw	ft0,24(a4)
   12170:	02072587          	flw	fa1,32(a4)
	return vec3(a[0] - b[0], a[1] - b[1], a[2] - b[2]);
   12174:	09457353          	fsub.s	ft6,fa0,fs4
   12178:	81fef843          	fmadd.s	fa6,ft9,ft11,fa6
   1217c:	00412c27          	fsw	ft4,24(sp)
   12180:	03f12027          	fsw	ft11,32(sp)
   12184:	09807253          	fsub.s	ft4,ft0,fs8
   12188:	0955ffd3          	fsub.s	ft11,fa1,fs5
	inline float operator[](int i) const { return e[i]; }
   1218c:	0006a707          	flw	fa4,0(a3)
   12190:	00072187          	flw	ft3,0(a4)
	return vec3(a[0] - b[0], a[1] - b[1], a[2] - b[2]);
   12194:	09417653          	fsub.s	fa2,ft2,fs4
   12198:	08e9f8d3          	fsub.s	fa7,fs3,fa4
   1219c:	08e1ff53          	fsub.s	ft10,ft3,fa4
   121a0:	02412227          	fsw	ft4,36(sp)
   121a4:	08e07753          	fsub.s	fa4,ft0,fa4
	return a[0] * b[0] + a[1] * b[1] + a[2] * b[2];
   121a8:	1060f253          	fmul.s	ft4,ft1,ft6
	return vec3(a[0] - b[0], a[1] - b[1], a[2] - b[2]);
   121ac:	03f12627          	fsw	ft11,44(sp)
   121b0:	09807fd3          	fsub.s	ft11,ft0,fs8
	inline float operator[](int i) const { return e[i]; }
   121b4:	0086a387          	flw	ft7,8(a3)
   121b8:	01472907          	flw	fs2,20(a4)
	return vec3(a[0] - b[0], a[1] - b[1], a[2] - b[2]);
   121bc:	02612427          	fsw	ft6,40(sp)
	inline float operator[](int i) const { return e[i]; }
   121c0:	0106a307          	flw	ft6,16(a3)
	return prnt_shrd_edg;
}

inline glm::vec3 evalute_deformation_bounds(uint32_t qdb, float max_db_over_max_error, const Triangle& tri, const Ray& last_ray,  const Ray& ray, const bool edge_mask[3])
{
	glm::vec3 fdbs((float)(qdb >> 00 & 0x3ff), (float)(qdb >> 10 & 0x3ff), (float)(qdb >> 20 & 0x3ff));
   121c4:	00a7d91b          	srlw	s2,a5,0xa
   121c8:	0147d39b          	srlw	t2,a5,0x14
	return vec3(a[0] - b[0], a[1] - b[1], a[2] - b[2]);
   121cc:	0981f453          	fsub.s	fs0,ft3,fs8
   121d0:	00c12a27          	fsw	fa2,20(sp)
	return a[0] * b[0] + a[1] * b[1] + a[2] * b[2];
   121d4:	10c0f653          	fmul.s	fa2,ft1,fa2
   121d8:	286f7f43          	fmadd.s	ft10,ft10,ft6,ft5
   121dc:	3ff7f793          	and	a5,a5,1023
	return vec3(a[0] - b[0], a[1] - b[1], a[2] - b[2]);
   121e0:	087972d3          	fsub.s	ft5,fs2,ft7
   121e4:	3ff97913          	and	s2,s2,1023
   121e8:	3ff3f393          	and	t2,t2,1023
   121ec:	09597e53          	fsub.s	ft8,fs2,fs5
   121f0:	21fef243          	fmadd.s	ft4,ft9,ft11,ft4
	return a[0] * b[0] + a[1] * b[1] + a[2] * b[2];
   121f4:	691378c3          	fmadd.s	fa7,ft6,fa7,fa3
	e[0] *= v[0];
   121f8:	09012f87          	flw	ft11,144(sp)
	return a[0] * b[0] + a[1] * b[1] + a[2] * b[2];
   121fc:	78e37343          	fmadd.s	ft6,ft6,fa4,fa5
	inline float operator[](int i) const { return e[i]; }
   12200:	00872087          	flw	ft1,8(a4)
   12204:	d007f6d3          	fcvt.s.w	fa3,a5
   12208:	d0097753          	fcvt.s.w	fa4,s2
   1220c:	d003f7d3          	fcvt.s.w	fa5,t2
   12210:	608ef643          	fmadd.s	fa2,ft9,fs0,fa2
	return vec3(a[0] - b[0], a[1] - b[1], a[2] - b[2]);
   12214:	0950fbd3          	fsub.s	fs7,ft1,fs5
   12218:	0870fed3          	fsub.s	ft9,ft1,ft7
	e[0] *= v[0];
   1221c:	11f6f6d3          	fmul.s	fa3,fa3,ft11
	return vec3(a[0] - b[0], a[1] - b[1], a[2] - b[2]);
   12220:	0875f3d3          	fsub.s	ft7,fa1,ft7
	e[1] *= v[1];
   12224:	11f77753          	fmul.s	fa4,fa4,ft11
	e[2] *= v[2];
   12228:	11f7f7d3          	fmul.s	fa5,fa5,ft11
	return a[0] * b[0] + a[1] * b[1] + a[2] * b[2];
   1222c:	0955ffd3          	fsub.s	ft11,fa1,fs5
	return vec3(a[0] - b[0], a[1] - b[1], a[2] - b[2]);
   12230:	00512827          	fsw	ft5,16(sp)
	return a[0] * b[0] + a[1] * b[1] + a[2] * b[2];
   12234:	81cdf843          	fmadd.s	fa6,fs11,ft8,fa6
	inline float operator[](int i) const { return e[i]; }
   12238:	0186a287          	flw	ft5,24(a3)
	return vec3(a[0] - b[0], a[1] - b[1], a[2] - b[2]);
   1223c:	03c12827          	fsw	ft8,48(sp)
	return a[0] * b[0] + a[1] * b[1] + a[2] * b[2];
   12240:	01012e07          	flw	ft8,16(sp)
   12244:	f05efec3          	fmadd.s	ft9,ft9,ft5,ft10
   12248:	617df643          	fmadd.s	fa2,fs11,fs7,fa2
   1224c:	89c2f8c3          	fmadd.s	fa7,ft5,ft8,fa7
   12250:	21fdf243          	fmadd.s	ft4,fs11,ft11,ft4
   12254:	3072f2c3          	fmadd.s	ft5,ft5,ft7,ft6

	glm::vec3 dlen(glm::dot(tri.vrts[0] - ray.o, ray.d), glm::dot(tri.vrts[1] - ray.o, ray.d), glm::dot(tri.vrts[2] - ray.o, ray.d));
	glm::vec3 last_dlen(glm::dot(tri.vrts[0] - last_ray.o, last_ray.d), glm::dot(tri.vrts[1] - last_ray.o, last_ray.d), glm::dot(tri.vrts[2] - last_ray.o, last_ray.d));
	
	glm::vec3 r;
	if(edge_mask[0]) r[0] = std::min(last_dlen[1], last_dlen[2]) * last_ray.drdt + last_ray.radius;
   12258:	440580e3          	beqz	a1,12e98 <_Z9intersectjRK32TesselationTree1SecondaryRayDataRK3RayR3Hit+0x1194>
   1225c:	28588353          	fmin.s	ft6,fa7,ft5
   12260:	0206a387          	flw	ft7,32(a3)
   12264:	0246af07          	flw	ft10,36(a3)
   12268:	f063f343          	fmadd.s	ft6,ft7,ft6,ft10
	else             r[0] = std::min(     dlen[1],      dlen[2]) *      ray.drdt +      ray.radius;
	if(edge_mask[1]) r[1] = std::min(last_dlen[2], last_dlen[0]) * last_ray.drdt + last_ray.radius;
   1226c:	400a82e3          	beqz	s5,12e70 <_Z9intersectjRK32TesselationTree1SecondaryRayDataRK3RayR3Hit+0x116c>
   12270:	285e82d3          	fmin.s	ft5,ft9,ft5
   12274:	0206a207          	flw	ft4,32(a3)
   12278:	0246a387          	flw	ft7,36(a3)
   1227c:	385272c3          	fmadd.s	ft5,ft4,ft5,ft7
	else             r[1] = std::min(     dlen[2],      dlen[0]) *      ray.drdt +      ray.radius;
	if(edge_mask[2]) r[2] = std::min(last_dlen[0], last_dlen[1]) * last_ray.drdt + last_ray.radius;
   12280:	400982e3          	beqz	s3,12e84 <_Z9intersectjRK32TesselationTree1SecondaryRayDataRK3RayR3Hit+0x1180>
   12284:	291e8ed3          	fmin.s	ft9,ft9,fa7
   12288:	0206a607          	flw	fa2,32(a3)
   1228c:	0246a207          	flw	ft4,36(a3)
   12290:	21d67643          	fmadd.s	fa2,fa2,ft9,ft4
	asm volatile("frcp.s %0,%1\n\t" 
   12294:	60037353          	frcp.s	ft6,ft6
   12298:	6002f2d3          	frcp.s	ft5,ft5
   1229c:	60067653          	frcp.s	fa2,fa2
	return vec3(a[0] * b[0], a[1] * b[1], a[2] * b[2]);
   122a0:	10d6f6d3          	fmul.s	fa3,fa3,fa3
   122a4:	04c12387          	flw	ft7,76(sp)
   122a8:	10e77753          	fmul.s	fa4,fa4,fa4
   122ac:	10f7f7d3          	fmul.s	fa5,fa5,fa5
   122b0:	f0000253          	fmv.w.x	ft4,zero
   122b4:	1076f6d3          	fmul.s	fa3,fa3,ft7
   122b8:	10777753          	fmul.s	fa4,fa4,ft7
   122bc:	1077f7d3          	fmul.s	fa5,fa5,ft7
   122c0:	1066f6d3          	fmul.s	fa3,fa3,ft6
   122c4:	10577753          	fmul.s	fa4,fa4,ft5
   122c8:	10c7f7d3          	fmul.s	fa5,fa5,fa2
   122cc:	a1a697d3          	flt.s	a5,fa3,fs10
   122d0:	00079663          	bnez	a5,122dc <_Z9intersectjRK32TesselationTree1SecondaryRayDataRK3RayR3Hit+0x5d8>
	return vec3(a[0] - b[0], a[1] - b[1], a[2] - b[2]);
   122d4:	09a6f253          	fsub.s	ft4,fa3,fs10
   122d8:	29a20253          	fmin.s	ft4,ft4,fs10
   122dc:	a1a717d3          	flt.s	a5,fa4,fs10
   122e0:	f00002d3          	fmv.w.x	ft5,zero
   122e4:	00079663          	bnez	a5,122f0 <_Z9intersectjRK32TesselationTree1SecondaryRayDataRK3RayR3Hit+0x5ec>
   122e8:	09a772d3          	fsub.s	ft5,fa4,fs10
   122ec:	29a282d3          	fmin.s	ft5,ft5,fs10
   122f0:	a1a797d3          	flt.s	a5,fa5,fs10
   122f4:	f0000353          	fmv.w.x	ft6,zero
   122f8:	00079663          	bnez	a5,12304 <_Z9intersectjRK32TesselationTree1SecondaryRayDataRK3RayR3Hit+0x600>
   122fc:	09a7f353          	fsub.s	ft6,fa5,fs10
   12300:	29a30353          	fmin.s	ft6,ft6,fs10
		if(edge_states[0] <= 0.0f && edge_states[1] <= 0.0f && edge_states[2] <= 0.0f)
   12304:	f00007d3          	fmv.w.x	fa5,zero
   12308:	a0f207d3          	fle.s	a5,ft4,fa5
   1230c:	00078a63          	beqz	a5,12320 <_Z9intersectjRK32TesselationTree1SecondaryRayDataRK3RayR3Hit+0x61c>
   12310:	a0f287d3          	fle.s	a5,ft5,fa5
   12314:	00078663          	beqz	a5,12320 <_Z9intersectjRK32TesselationTree1SecondaryRayDataRK3RayR3Hit+0x61c>
   12318:	a0f307d3          	fle.s	a5,ft6,fa5
   1231c:	68079263          	bnez	a5,129a0 <_Z9intersectjRK32TesselationTree1SecondaryRayDataRK3RayR3Hit+0xc9c>
		uint32_t absoulte_node_index = lod_node_offset[lod] + node_index;
   12320:	000193b7          	lui	t2,0x19
   12324:	d3838393          	add	t2,t2,-712 # 18d38 <_ZL15lod_node_offset>
   12328:	002e9793          	sll	a5,t4,0x2
   1232c:	00f387b3          	add	a5,t2,a5
   12330:	0007a783          	lw	a5,0(a5)
   12334:	06813683          	ld	a3,104(sp)
   12338:	020e9a93          	sll	s5,t4,0x20
   1233c:	01e787bb          	addw	a5,a5,t5
		move_to_stack(new_tri, triangles[absoulte_node_index]);
   12340:	02079793          	sll	a5,a5,0x20
   12344:	0207d793          	srl	a5,a5,0x20
   12348:	00d787b3          	add	a5,a5,a3
		uint64_t r = ((uint64_t*)&src)[i];
   1234c:	07013683          	ld	a3,112(sp)
   12350:	00579793          	sll	a5,a5,0x5
		uint32_t absoulte_node_index = lod_node_offset[lod] + node_index;
   12354:	020ada93          	srl	s5,s5,0x20
   12358:	00f687b3          	add	a5,a3,a5
   1235c:	0007b583          	ld	a1,0(a5)
   12360:	0087b683          	ld	a3,8(a5)
   12364:	0107b983          	ld	s3,16(a5)
	float f0 = u24_to_f32(dw0 & 0xffffff);
   12368:	0005891b          	sext.w	s2,a1
	return (u & (1 << 23)) ? 1.0 : as_f32(u | 0x3f800000) * 2.0f - 3.0f;
   1236c:	01795c93          	srl	s9,s2,0x17
   12370:	001cfc93          	and	s9,s9,1
		uint64_t r = ((uint64_t*)&src)[i];
   12374:	0187b783          	ld	a5,24(a5)
	return (u & (1 << 23)) ? 1.0 : as_f32(u | 0x3f800000) * 2.0f - 3.0f;
   12378:	340c96e3          	bnez	s9,12ec4 <_Z9intersectjRK32TesselationTree1SecondaryRayDataRK3RayR3Hit+0x11c0>
   1237c:	02891913          	sll	s2,s2,0x28
   12380:	02895913          	srl	s2,s2,0x28
   12384:	3f800cb7          	lui	s9,0x3f800
	return *((float*)&u);
   12388:	01996933          	or	s2,s2,s9
	return (u & (1 << 23)) ? 1.0 : as_f32(u | 0x3f800000) * 2.0f - 3.0f;
   1238c:	260ba707          	flw	fa4,608(s7) # 1a260 <__DATA_BEGIN__+0x10>
   12390:	264b2787          	flw	fa5,612(s6) # 1a264 <__DATA_BEGIN__+0x14>
   12394:	f00906d3          	fmv.w.x	fa3,s2
   12398:	78e6f643          	fmadd.s	fa2,fa3,fa4,fa5
	float f1 = u24_to_f32((dw0 >> 24) & 0xffffff);
   1239c:	0185d913          	srl	s2,a1,0x18
   123a0:	0009091b          	sext.w	s2,s2
   123a4:	01795c93          	srl	s9,s2,0x17
   123a8:	001cfc93          	and	s9,s9,1
   123ac:	300c98e3          	bnez	s9,12ebc <_Z9intersectjRK32TesselationTree1SecondaryRayDataRK3RayR3Hit+0x11b8>
   123b0:	02891913          	sll	s2,s2,0x28
   123b4:	02895913          	srl	s2,s2,0x28
   123b8:	3f800cb7          	lui	s9,0x3f800
	return *((float*)&u);
   123bc:	01996933          	or	s2,s2,s9
	return (u & (1 << 23)) ? 1.0 : as_f32(u | 0x3f800000) * 2.0f - 3.0f;
   123c0:	260ba707          	flw	fa4,608(s7)
   123c4:	264b2787          	flw	fa5,612(s6)
   123c8:	f00906d3          	fmv.w.x	fa3,s2
   123cc:	78e6f6c3          	fmadd.s	fa3,fa3,fa4,fa5
	float f2 = u24_to_f32(((dw0 >> 48) | (dw1 << 16)) & 0xffffff);
   123d0:	0106991b          	sllw	s2,a3,0x10
   123d4:	0305d593          	srl	a1,a1,0x30
   123d8:	0125e5b3          	or	a1,a1,s2
   123dc:	0005859b          	sext.w	a1,a1
   123e0:	0175d913          	srl	s2,a1,0x17
   123e4:	00197913          	and	s2,s2,1
   123e8:	2c0916e3          	bnez	s2,12eb4 <_Z9intersectjRK32TesselationTree1SecondaryRayDataRK3RayR3Hit+0x11b0>
   123ec:	02859593          	sll	a1,a1,0x28
   123f0:	0285d593          	srl	a1,a1,0x28
   123f4:	3f800937          	lui	s2,0x3f800
	return *((float*)&u);
   123f8:	0125e5b3          	or	a1,a1,s2
	return (u & (1 << 23)) ? 1.0 : as_f32(u | 0x3f800000) * 2.0f - 3.0f;
   123fc:	260ba707          	flw	fa4,608(s7)
   12400:	264b2787          	flw	fa5,612(s6)
   12404:	f00583d3          	fmv.w.x	ft7,a1
   12408:	78e3f7c3          	fmadd.s	fa5,ft7,fa4,fa5
	float f3 = u24_to_f32((dw1 >> 8) & 0xffffff);
   1240c:	0086d593          	srl	a1,a3,0x8
   12410:	0005859b          	sext.w	a1,a1
   12414:	0175d913          	srl	s2,a1,0x17
   12418:	00197913          	and	s2,s2,1
   1241c:	280918e3          	bnez	s2,12eac <_Z9intersectjRK32TesselationTree1SecondaryRayDataRK3RayR3Hit+0x11a8>
   12420:	02859593          	sll	a1,a1,0x28
   12424:	0285d593          	srl	a1,a1,0x28
   12428:	3f800937          	lui	s2,0x3f800
	return *((float*)&u);
   1242c:	0125e5b3          	or	a1,a1,s2
	return (u & (1 << 23)) ? 1.0 : as_f32(u | 0x3f800000) * 2.0f - 3.0f;
   12430:	260ba387          	flw	ft7,608(s7)
   12434:	264b2707          	flw	fa4,612(s6)
   12438:	f0058853          	fmv.w.x	fa6,a1
   1243c:	70787743          	fmadd.s	fa4,fa6,ft7,fa4
	float f4 = u24_to_f32((dw1 >> 32) & 0xffffff);
   12440:	4206d593          	sra	a1,a3,0x20
   12444:	0175d913          	srl	s2,a1,0x17
   12448:	00197913          	and	s2,s2,1
   1244c:	21ad03d3          	fmv.s	ft7,fs10
   12450:	02091263          	bnez	s2,12474 <_Z9intersectjRK32TesselationTree1SecondaryRayDataRK3RayR3Hit+0x770>
   12454:	02859593          	sll	a1,a1,0x28
   12458:	0285d593          	srl	a1,a1,0x28
   1245c:	3f800937          	lui	s2,0x3f800
	return *((float*)&u);
   12460:	0125e5b3          	or	a1,a1,s2
	return (u & (1 << 23)) ? 1.0 : as_f32(u | 0x3f800000) * 2.0f - 3.0f;
   12464:	260ba387          	flw	ft7,608(s7)
   12468:	264b2807          	flw	fa6,612(s6)
   1246c:	f00588d3          	fmv.w.x	fa7,a1
   12470:	8078f3c3          	fmadd.s	ft7,fa7,ft7,fa6
	float f5 = u24_to_f32(((dw1 >> 56) | (dw2 << 8)) & 0xffffff);
   12474:	0089959b          	sllw	a1,s3,0x8
   12478:	0386d693          	srl	a3,a3,0x38
   1247c:	00b6e6b3          	or	a3,a3,a1
   12480:	0006869b          	sext.w	a3,a3
   12484:	0176d593          	srl	a1,a3,0x17
   12488:	0015f593          	and	a1,a1,1
   1248c:	21ad0853          	fmv.s	fa6,fs10
   12490:	02059663          	bnez	a1,124bc <_Z9intersectjRK32TesselationTree1SecondaryRayDataRK3RayR3Hit+0x7b8>
   12494:	02869693          	sll	a3,a3,0x28
   12498:	3f8005b7          	lui	a1,0x3f800
   1249c:	0286d693          	srl	a3,a3,0x28
	return *((float*)&u);
   124a0:	00b6e6b3          	or	a3,a3,a1
	return (u & (1 << 23)) ? 1.0 : as_f32(u | 0x3f800000) * 2.0f - 3.0f;
   124a4:	0001a637          	lui	a2,0x1a
   124a8:	0001a5b7          	lui	a1,0x1a
   124ac:	26062807          	flw	fa6,608(a2) # 1a260 <__DATA_BEGIN__+0x10>
   124b0:	f00688d3          	fmv.w.x	fa7,a3
   124b4:	2645ae07          	flw	ft8,612(a1) # 1a264 <__DATA_BEGIN__+0x14>
   124b8:	e1187843          	fmadd.s	fa6,fa6,fa7,ft8
	float f6 = u24_to_f32((dw2 >> 16) & 0xffffff);
   124bc:	0109d693          	srl	a3,s3,0x10
   124c0:	0006869b          	sext.w	a3,a3
   124c4:	0176d593          	srl	a1,a3,0x17
   124c8:	0015f593          	and	a1,a1,1
   124cc:	21ad0fd3          	fmv.s	ft11,fs10
   124d0:	02059663          	bnez	a1,124fc <_Z9intersectjRK32TesselationTree1SecondaryRayDataRK3RayR3Hit+0x7f8>
   124d4:	02869693          	sll	a3,a3,0x28
   124d8:	3f8005b7          	lui	a1,0x3f800
   124dc:	0286d693          	srl	a3,a3,0x28
	return *((float*)&u);
   124e0:	00b6e6b3          	or	a3,a3,a1
	return (u & (1 << 23)) ? 1.0 : as_f32(u | 0x3f800000) * 2.0f - 3.0f;
   124e4:	0001a637          	lui	a2,0x1a
   124e8:	0001a5b7          	lui	a1,0x1a
   124ec:	26062887          	flw	fa7,608(a2) # 1a260 <__DATA_BEGIN__+0x10>
   124f0:	f0068e53          	fmv.w.x	ft8,a3
   124f4:	2645ae87          	flw	ft9,612(a1) # 1a264 <__DATA_BEGIN__+0x14>
   124f8:	e9c8ffc3          	fmadd.s	ft11,fa7,ft8,ft9
   124fc:	21ad0453          	fmv.s	fs0,fs10
	float f7 = u24_to_f32((dw2 >> 40) & 0xffffff);
   12500:	0289d693          	srl	a3,s3,0x28
   12504:	0209c263          	bltz	s3,12528 <_Z9intersectjRK32TesselationTree1SecondaryRayDataRK3RayR3Hit+0x824>
   12508:	3f8005b7          	lui	a1,0x3f800
	return *((float*)&u);
   1250c:	00b6e6b3          	or	a3,a3,a1
	return (u & (1 << 23)) ? 1.0 : as_f32(u | 0x3f800000) * 2.0f - 3.0f;
   12510:	0001a637          	lui	a2,0x1a
   12514:	0001a5b7          	lui	a1,0x1a
   12518:	26062887          	flw	fa7,608(a2) # 1a260 <__DATA_BEGIN__+0x10>
   1251c:	f0068e53          	fmv.w.x	ft8,a3
   12520:	2645ae87          	flw	ft9,612(a1) # 1a264 <__DATA_BEGIN__+0x14>
   12524:	e9c8f443          	fmadd.s	fs0,fa7,ft8,ft9
	float f8 = u24_to_f32(dw3 & 0xffffff);
   12528:	0007879b          	sext.w	a5,a5
   1252c:	0177d693          	srl	a3,a5,0x17
   12530:	0016f693          	and	a3,a3,1
   12534:	21ad0f53          	fmv.s	ft10,fs10
   12538:	02069663          	bnez	a3,12564 <_Z9intersectjRK32TesselationTree1SecondaryRayDataRK3RayR3Hit+0x860>
   1253c:	02879793          	sll	a5,a5,0x28
   12540:	3f8006b7          	lui	a3,0x3f800
   12544:	0287d793          	srl	a5,a5,0x28
	return *((float*)&u);
   12548:	00d7e7b3          	or	a5,a5,a3
	return (u & (1 << 23)) ? 1.0 : as_f32(u | 0x3f800000) * 2.0f - 3.0f;
   1254c:	0001a637          	lui	a2,0x1a
   12550:	0001a6b7          	lui	a3,0x1a
   12554:	2606a887          	flw	fa7,608(a3) # 1a260 <__DATA_BEGIN__+0x10>
   12558:	f0078e53          	fmv.w.x	ft8,a5
   1255c:	26462e87          	flw	ft9,612(a2) # 1a264 <__DATA_BEGIN__+0x14>
   12560:	e9c8ff43          	fmadd.s	ft10,fa7,ft8,ft9
	return vec3(a[0] + b[0], a[1] + b[1], a[2] + b[2]);
   12564:	0009fed3          	fadd.s	ft9,fs3,ft0
   12568:	00a4fe53          	fadd.s	ft8,fs1,fa0
   1256c:	0001f053          	fadd.s	ft0,ft3,ft0
   12570:	00b978d3          	fadd.s	fa7,fs2,fa1
   12574:	00a17553          	fadd.s	fa0,ft2,fa0
   12578:	00b0f5d3          	fadd.s	fa1,ft1,fa1
   1257c:	0131f1d3          	fadd.s	ft3,ft3,fs3
   12580:	00917153          	fadd.s	ft2,ft2,fs1
   12584:	0120f0d3          	fadd.s	ft1,ft1,fs2
	return vec3(a[0] - b[0], a[1] - b[1], a[2] - b[2]);
   12588:	7190774b          	fnmsub.s	fa4,ft0,fs9,fa4
   1258c:	399573cb          	fnmsub.s	ft7,fa0,fs9,ft7
   12590:	8195f84b          	fnmsub.s	fa6,fa1,fs9,fa6
   12594:	4191744b          	fnmsub.s	fs0,ft2,fs9,fs0
   12598:	f190ff4b          	fnmsub.s	ft10,ft1,fs9,ft10
   1259c:	619ef64b          	fnmsub.s	fa2,ft9,fs9,fa2
   125a0:	699e76cb          	fnmsub.s	fa3,ft8,fs9,fa3
   125a4:	7998f7cb          	fnmsub.s	fa5,fa7,fs9,fa5
   125a8:	f991ffcb          	fnmsub.s	ft11,ft3,fs9,ft11
	return vec3(a[0] * b[0], a[1] * b[1], a[2] * b[2]);
   125ac:	1053f3d3          	fmul.s	ft7,ft7,ft5
   125b0:	10467653          	fmul.s	fa2,fa2,ft4
   125b4:	1046f6d3          	fmul.s	fa3,fa3,ft4
   125b8:	1047f7d3          	fmul.s	fa5,fa5,ft4
   125bc:	10587853          	fmul.s	fa6,fa6,ft5
   125c0:	10577753          	fmul.s	fa4,fa4,ft5
   125c4:	10647453          	fmul.s	fs0,fs0,ft6
   125c8:	106f7f53          	fmul.s	ft10,ft10,ft6
   125cc:	106fffd3          	fmul.s	ft11,ft11,ft6
	return vec3(a[0] + b[0], a[1] + b[1], a[2] + b[2]);
   125d0:	619ef643          	fmadd.s	fa2,ft9,fs9,fa2
   125d4:	71907743          	fmadd.s	fa4,ft0,fs9,fa4
   125d8:	699e76c3          	fmadd.s	fa3,ft8,fs9,fa3
   125dc:	7998f7c3          	fmadd.s	fa5,fa7,fs9,fa5
   125e0:	39957543          	fmadd.s	fa0,fa0,fs9,ft7
   125e4:	8195f5c3          	fmadd.s	fa1,fa1,fs9,fa6
   125e8:	f991f043          	fmadd.s	ft0,ft3,fs9,ft11
   125ec:	41917143          	fmadd.s	ft2,ft2,fs9,fs0
   125f0:	f190f0c3          	fmadd.s	ft1,ft1,fs9,ft10
   125f4:	02428293          	add	t0,t0,36
   125f8:	20010793          	add	a5,sp,512
		if(next_level == header.last_lod) //leaf node
   125fc:	04013603          	ld	a2,64(sp)
   12600:	005787b3          	add	a5,a5,t0
	e[0] = v[0];
   12604:	00c7a027          	fsw	fa2,0(a5)
	e[1] = v[1];
   12608:	00d7a227          	fsw	fa3,4(a5)
	e[2] = v[2];
   1260c:	00f7a427          	fsw	fa5,8(a5)
	e[0] = v[0];
   12610:	00e7a627          	fsw	fa4,12(a5)
	e[1] = v[1];
   12614:	00a7a827          	fsw	fa0,16(a5)
	e[2] = v[2];
   12618:	00b7aa27          	fsw	fa1,20(a5)
	e[0] = v[0];
   1261c:	0007ac27          	fsw	ft0,24(a5)
	e[1] = v[1];
   12620:	0027ae27          	fsw	ft2,28(a5)
	e[2] = v[2];
   12624:	0217a027          	fsw	ft1,32(a5)
	return vec3(a[0] + b[0], a[1] + b[1], a[2] + b[2]);
   12628:	02c12827          	fsw	fa2,48(sp)
   1262c:	02d12a27          	fsw	fa3,52(sp)
   12630:	04f12427          	fsw	fa5,72(sp)
   12634:	02e12227          	fsw	fa4,36(sp)
   12638:	02a12427          	fsw	fa0,40(sp)
   1263c:	02b12627          	fsw	fa1,44(sp)
   12640:	00012827          	fsw	ft0,16(sp)
   12644:	00212a27          	fsw	ft2,20(sp)
   12648:	02112027          	fsw	ft1,32(sp)
		uint32_t next_level = lod + 1;
   1264c:	001e8793          	add	a5,t4,1
		uint32_t first_child_index = node_index << 2; //compute first child idnex
   12650:	002f129b          	sllw	t0,t5,0x2
		uint32_t next_level = lod + 1;
   12654:	001e869b          	addw	a3,t4,1
		uint32_t first_child_index = node_index << 2; //compute first child idnex
   12658:	002f1f13          	sll	t5,t5,0x2
		if(next_level == header.last_lod) //leaf node
   1265c:	54f60c63          	beq	a2,a5,12bb4 <_Z9intersectjRK32TesselationTree1SecondaryRayDataRK3RayR3Hit+0xeb0>
				}
			}
		}
		else //interior node
		{
			tri_stack[lod].child_transformed = (edge_states[0] < 1.0f) || (edge_states[1] < 1.0f) || (edge_states[2] < 1.0f) || ((lod != 0) && tri_stack[lod - 1].child_transformed);
   12660:	a1a215d3          	flt.s	a1,ft4,fs10
   12664:	00100993          	li	s3,1
   12668:	00059e63          	bnez	a1,12684 <_Z9intersectjRK32TesselationTree1SecondaryRayDataRK3RayR3Hit+0x980>
   1266c:	a1a295d3          	flt.s	a1,ft5,fs10
   12670:	00059a63          	bnez	a1,12684 <_Z9intersectjRK32TesselationTree1SecondaryRayDataRK3RayR3Hit+0x980>
   12674:	a1a315d3          	flt.s	a1,ft6,fs10
   12678:	00059663          	bnez	a1,12684 <_Z9intersectjRK32TesselationTree1SecondaryRayDataRK3RayR3Hit+0x980>
   1267c:	00000993          	li	s3,0
   12680:	1c0e90e3          	bnez	t4,13040 <_Z9intersectjRK32TesselationTree1SecondaryRayDataRK3RayR3Hit+0x133c>
   12684:	04c00e93          	li	t4,76
   12688:	03da8eb3          	mul	t4,s5,t4

			uint32_t temp_node_stack_size = node_stack_size;
			uint32_t absolute_first_child_index = lod_node_offset[next_level] + first_child_index;
   1268c:	02069693          	sll	a3,a3,0x20
   12690:	01e6d693          	srl	a3,a3,0x1e
	stack[j] = entry;
   12694:	01a7959b          	sllw	a1,a5,0x1a
			tri_stack[lod].child_transformed = (edge_states[0] < 1.0f) || (edge_states[1] < 1.0f) || (edge_states[2] < 1.0f) || ((lod != 0) && tri_stack[lod - 1].child_transformed);
   12698:	0d010613          	add	a2,sp,208
			uint32_t absolute_first_child_index = lod_node_offset[next_level] + first_child_index;
   1269c:	00d383b3          	add	t2,t2,a3
   126a0:	0003a683          	lw	a3,0(t2)
   126a4:	04000937          	lui	s2,0x4000
   126a8:	fff90913          	add	s2,s2,-1 # 3ffffff <__global_pointer$+0x3fe55af>
   126ac:	00c42107          	flw	ft2,12(s0)
			tri_stack[lod].child_transformed = (edge_states[0] < 1.0f) || (edge_states[1] < 1.0f) || (edge_states[2] < 1.0f) || ((lod != 0) && tri_stack[lod - 1].child_transformed);
   126b0:	3c0e8793          	add	a5,t4,960
   126b4:	00c78eb3          	add	t4,a5,a2
   126b8:	db3e8ca3          	sb	s3,-583(t4)
      if (__b < __a)
   126bc:	01c42587          	flw	fa1,28(s0)
   126c0:	3c000eb7          	lui	t4,0x3c000
			for(uint32_t i = 0; i < 4; ++i)
   126c4:	09412507          	flw	fa0,148(sp)
   126c8:	09812007          	flw	ft0,152(sp)
   126cc:	09c12087          	flw	ft1,156(sp)
   126d0:	012f7db3          	and	s11,t5,s2
   126d4:	01d5f633          	and	a2,a1,t4
			uint32_t absolute_first_child_index = lod_node_offset[next_level] + first_child_index;
   126d8:	00d282bb          	addw	t0,t0,a3
			for(uint32_t i = 0; i < 4; ++i)
   126dc:	03013c23          	sd	a6,56(sp)
   126e0:	07113023          	sd	a7,96(sp)
		const NodeStackEntry current_node_entry = node_stack[--node_stack_size];
   126e4:	00030793          	mv	a5,t1
			for(uint32_t i = 0; i < 4; ++i)
   126e8:	000d8893          	mv	a7,s11
   126ec:	00000693          	li	a3,0
   126f0:	00400c93          	li	s9,4
   126f4:	01c13c23          	sd	t3,24(sp)
   126f8:	00060813          	mv	a6,a2
   126fc:	00030d93          	mv	s11,t1
			{
				TesselationTree1::Node node;
				move_to_stack(node, nodes[absolute_first_child_index + i]);
   12700:	00568abb          	addw	s5,a3,t0
   12704:	020a9613          	sll	a2,s5,0x20
   12708:	01b65a93          	srl	s5,a2,0x1b
		uint64_t r = ((uint64_t*)&src)[i];
   1270c:	01550ab3          	add	s5,a0,s5
   12710:	000ab303          	ld	t1,0(s5)
   12714:	008ab583          	ld	a1,8(s5)
   12718:	010ab603          	ld	a2,16(s5)
	for(uint i = 0; i < sizeof(T) / sizeof(uint64_t); ++i)
   1271c:	00030393          	mv	t2,t1
   12720:	00058f13          	mv	t5,a1
   12724:	00060e93          	mv	t4,a2
   12728:	02035313          	srl	t1,t1,0x20
   1272c:	0205d593          	srl	a1,a1,0x20
   12730:	02065613          	srl	a2,a2,0x20
		uint64_t r = ((uint64_t*)&src)[i];
   12734:	018aba83          	ld	s5,24(s5)

				if(tri_stack[lod].child_transformed)
   12738:	f00387d3          	fmv.w.x	fa5,t2
   1273c:	f0030653          	fmv.w.x	fa2,t1
   12740:	f00f06d3          	fmv.w.x	fa3,t5
   12744:	f00582d3          	fmv.w.x	ft5,a1
   12748:	f00e8253          	fmv.w.x	ft4,t4
   1274c:	f00601d3          	fmv.w.x	ft3,a2
   12750:	3c099c63          	bnez	s3,12b28 <_Z9intersectjRK32TesselationTree1SecondaryRayDataRK3RayR3Hit+0xe24>
	return vec3(a[0] - b[0], a[1] - b[1], a[2] - b[2]);
   12754:	0987f7d3          	fsub.s	fa5,fa5,fs8
   12758:	09467653          	fsub.s	fa2,fa2,fs4
   1275c:	0982f2d3          	fsub.s	ft5,ft5,fs8
   12760:	09427253          	fsub.s	ft4,ft4,fs4
   12764:	0956f6d3          	fsub.s	fa3,fa3,fs5
	return vec3(a[0] * b[0], a[1] * b[1], a[2] * b[2]);
   12768:	1017f7d3          	fmul.s	fa5,fa5,ft1
   1276c:	10067653          	fmul.s	fa2,fa2,ft0
   12770:	1012f2d3          	fmul.s	ft5,ft5,ft1
   12774:	10027253          	fmul.s	ft4,ft4,ft0
	return vec3(a[0] - b[0], a[1] - b[1], a[2] - b[2]);
   12778:	0951f1d3          	fsub.s	ft3,ft3,fs5
	return vec3(a[0] * b[0], a[1] * b[1], a[2] * b[2]);
   1277c:	10a6f6d3          	fmul.s	fa3,fa3,fa0
   12780:	28578753          	fmin.s	fa4,fa5,ft5
   12784:	28460353          	fmin.s	ft6,fa2,ft4
	if (tmin > tmax) return ray.t_max;//no hit || behind
   12788:	285797d3          	fmax.s	fa5,fa5,ft5
   1278c:	28461653          	fmax.s	fa2,fa2,ft4
   12790:	10a1f1d3          	fmul.s	ft3,ft3,fa0
	float tmin = std::max(std::max(tminv.x, tminv.y), std::max(tminv.z, ray.t_min));
   12794:	28671753          	fmax.s	fa4,fa4,ft6
	if (tmin > tmax) return ray.t_max;//no hit || behind
   12798:	28c787d3          	fmin.s	fa5,fa5,fa2
   1279c:	28271753          	fmax.s	fa4,fa4,ft2
   127a0:	28368653          	fmin.s	fa2,fa3,ft3
   127a4:	28b787d3          	fmin.s	fa5,fa5,fa1
   127a8:	283696d3          	fmax.s	fa3,fa3,ft3
   127ac:	28c71753          	fmax.s	fa4,fa4,fa2
   127b0:	28d787d3          	fmin.s	fa5,fa5,fa3
   127b4:	a0e79653          	flt.s	a2,fa5,fa4
   127b8:	00060463          	beqz	a2,127c0 <_Z9intersectjRK32TesselationTree1SecondaryRayDataRK3RayR3Hit+0xabc>
   127bc:	20b58753          	fmv.s	fa4,fa1
				new_entry.t = intersect(node.aabb, ray, inv_d);
				new_entry.node_index = first_child_index + i;
				new_entry.lod = next_level;
				new_entry.tri_type = i;
				new_entry.dbs = node.dbs;
				if(new_entry.t < hit.t) insert(new_entry, node_stack, node_stack_size++, temp_node_stack_size);
   127c0:	a1671653          	flt.s	a2,fa4,fs6
   127c4:	12061863          	bnez	a2,128f4 <_Z9intersectjRK32TesselationTree1SecondaryRayDataRK3RayR3Hit+0xbf0>
			for(uint32_t i = 0; i < 4; ++i)
   127c8:	00168693          	add	a3,a3,1
   127cc:	f3969ae3          	bne	a3,s9,12700 <_Z9intersectjRK32TesselationTree1SecondaryRayDataRK3RayR3Hit+0x9fc>
   127d0:	03813803          	ld	a6,56(sp)
   127d4:	06013883          	ld	a7,96(sp)
   127d8:	00078e13          	mv	t3,a5
			}
		}
	} while(node_stack_size);
   127dc:	fa0e1c63          	bnez	t3,11f94 <_Z9intersectjRK32TesselationTree1SecondaryRayDataRK3RayR3Hit+0x290>

	//if we found a hit convert barycentric coords to max lod
	if(hit_lod != ~0u)
   127e0:	fff00793          	li	a5,-1
   127e4:	0c813703          	ld	a4,200(sp)
   127e8:	04013603          	ld	a2,64(sp)
   127ec:	08f88a63          	beq	a7,a5,12880 <_Z9intersectjRK32TesselationTree1SecondaryRayDataRK3RayR3Hit+0xb7c>
	{
	#if 1
		for(uint32_t i = hit_lod; i <  header.last_lod; ++i)
   127f0:	00c4a783          	lw	a5,12(s1)
   127f4:	08c8f063          	bgeu	a7,a2,12874 <_Z9intersectjRK32TesselationTree1SecondaryRayDataRK3RayR3Hit+0xb70>
		{
			uint32_t tri_type;
			hit.bc *= glm::vec2(2.0f);

			if(hit.bc.x > 1.0f)
   127f8:	0001a6b7          	lui	a3,0x1a
   127fc:	0084a707          	flw	fa4,8(s1)
   12800:	0044a787          	flw	fa5,4(s1)
   12804:	2686a587          	flw	fa1,616(a3) # 1a268 <__DATA_BEGIN__+0x18>
			else if(hit.bc.y > 1.0f)
			{
				tri_type = 1;
				hit.bc -= glm::vec2(0.0f, 1.0f);
			}
			else if(hit.bc.x + hit.bc.y < 1.0f)
   12808:	258c2507          	flw	fa0,600(s8)
		for(uint32_t i = hit_lod; i <  header.last_lod; ++i)
   1280c:	00088593          	mv	a1,a7
   12810:	0240006f          	j	12834 <_Z9intersectjRK32TesselationTree1SecondaryRayDataRK3RayR3Hit+0xb30>
	e[0] -= v[0];
   12814:	08a677d3          	fsub.s	fa5,fa2,fa0
	e[1] *= v.e[1];
   12818:	20d68753          	fmv.s	fa4,fa3
				tri_type = 0;
   1281c:	00000693          	li	a3,0
			{
				tri_type = 3;
				hit.bc = glm::vec2(1.0f, 1.0f) - hit.bc;
			}

			hit.id <<= 2;
   12820:	0027979b          	sllw	a5,a5,0x2
			hit.id |= tri_type;
   12824:	00f6e6b3          	or	a3,a3,a5
		for(uint32_t i = hit_lod; i <  header.last_lod; ++i)
   12828:	0015859b          	addw	a1,a1,1
			hit.id |= tri_type;
   1282c:	0006879b          	sext.w	a5,a3
		for(uint32_t i = hit_lod; i <  header.last_lod; ++i)
   12830:	02b60e63          	beq	a2,a1,1286c <_Z9intersectjRK32TesselationTree1SecondaryRayDataRK3RayR3Hit+0xb68>
			if(hit.bc.x > 1.0f)
   12834:	a0f596d3          	flt.s	a3,fa1,fa5
	e[0] *= v.e[0];
   12838:	00f7f653          	fadd.s	fa2,fa5,fa5
	e[1] *= v.e[1];
   1283c:	00e776d3          	fadd.s	fa3,fa4,fa4
			else if(hit.bc.y > 1.0f)
   12840:	a0e59553          	flt.s	a0,fa1,fa4
			if(hit.bc.x > 1.0f)
   12844:	fc0698e3          	bnez	a3,12814 <_Z9intersectjRK32TesselationTree1SecondaryRayDataRK3RayR3Hit+0xb10>
			else if(hit.bc.y > 1.0f)
   12848:	70050663          	beqz	a0,12f54 <_Z9intersectjRK32TesselationTree1SecondaryRayDataRK3RayR3Hit+0x1250>
			hit.id <<= 2;
   1284c:	0027979b          	sllw	a5,a5,0x2
				tri_type = 1;
   12850:	00100693          	li	a3,1
			hit.id |= tri_type;
   12854:	00f6e6b3          	or	a3,a3,a5
		for(uint32_t i = hit_lod; i <  header.last_lod; ++i)
   12858:	0015859b          	addw	a1,a1,1
	e[1] -= v[1];
   1285c:	08a6f753          	fsub.s	fa4,fa3,fa0
	e[0] *= v.e[0];
   12860:	20c607d3          	fmv.s	fa5,fa2
			hit.id |= tri_type;
   12864:	0006879b          	sext.w	a5,a3
		for(uint32_t i = hit_lod; i <  header.last_lod; ++i)
   12868:	fcb616e3          	bne	a2,a1,12834 <_Z9intersectjRK32TesselationTree1SecondaryRayDataRK3RayR3Hit+0xb30>
   1286c:	00e4a427          	fsw	fa4,8(s1)
   12870:	00f4a227          	fsw	fa5,4(s1)
		}
	#endif
		hit.id += header.id_offset;
   12874:	01872703          	lw	a4,24(a4)
   12878:	00f707bb          	addw	a5,a4,a5
   1287c:	00f4a623          	sw	a5,12(s1)
	}

	return hit_lod != ~0u;
   12880:	52813083          	ld	ra,1320(sp)
   12884:	52013403          	ld	s0,1312(sp)
	return hit_lod != ~0u;
   12888:	00188513          	add	a0,a7,1
   1288c:	51813483          	ld	s1,1304(sp)
   12890:	51013903          	ld	s2,1296(sp)
   12894:	50813983          	ld	s3,1288(sp)
   12898:	50013a03          	ld	s4,1280(sp)
   1289c:	4f813a83          	ld	s5,1272(sp)
   128a0:	4f013b03          	ld	s6,1264(sp)
   128a4:	4e813b83          	ld	s7,1256(sp)
   128a8:	4e013c03          	ld	s8,1248(sp)
   128ac:	4d813c83          	ld	s9,1240(sp)
   128b0:	4d013d03          	ld	s10,1232(sp)
   128b4:	4c813d83          	ld	s11,1224(sp)
   128b8:	4bc12407          	flw	fs0,1212(sp)
   128bc:	4b812487          	flw	fs1,1208(sp)
   128c0:	4b412907          	flw	fs2,1204(sp)
   128c4:	4b012987          	flw	fs3,1200(sp)
   128c8:	4ac12a07          	flw	fs4,1196(sp)
   128cc:	4a812a87          	flw	fs5,1192(sp)
   128d0:	4a412b07          	flw	fs6,1188(sp)
   128d4:	4a012b87          	flw	fs7,1184(sp)
   128d8:	49c12c07          	flw	fs8,1180(sp)
   128dc:	49812c87          	flw	fs9,1176(sp)
   128e0:	49412d07          	flw	fs10,1172(sp)
   128e4:	49012d87          	flw	fs11,1168(sp)
	return hit_lod != ~0u;
   128e8:	00a03533          	snez	a0,a0
   128ec:	53010113          	add	sp,sp,1328
   128f0:	00008067          	ret
				if(new_entry.t < hit.t) insert(new_entry, node_stack, node_stack_size++, temp_node_stack_size);
   128f4:	0017831b          	addw	t1,a5,1
	for(; j != min; --j)
   128f8:	00fd88e3          	beq	s11,a5,13108 <_Z9intersectjRK32TesselationTree1SecondaryRayDataRK3RayR3Hit+0x1404>
   128fc:	01813e03          	ld	t3,24(sp)
   12900:	0200006f          	j	12920 <_Z9intersectjRK32TesselationTree1SecondaryRayDataRK3RayR3Hit+0xc1c>
		stack[j] = stack[j - 1];
   12904:	00062e83          	lw	t4,0(a2)
   12908:	01d5a023          	sw	t4,0(a1)
   1290c:	00462e83          	lw	t4,4(a2)
   12910:	01d5a223          	sw	t4,4(a1)
   12914:	00862e83          	lw	t4,8(a2)
   12918:	01d5a423          	sw	t4,8(a1)
	for(; j != min; --j)
   1291c:	5bee0863          	beq	t3,t5,12ecc <_Z9intersectjRK32TesselationTree1SecondaryRayDataRK3RayR3Hit+0x11c8>
		if(stack[j - 1].t >= entry.t) break;
   12920:	fff78e9b          	addw	t4,a5,-1
   12924:	020e9593          	sll	a1,t4,0x20
   12928:	0205d593          	srl	a1,a1,0x20
   1292c:	00159613          	sll	a2,a1,0x1
   12930:	00b60633          	add	a2,a2,a1
   12934:	00261613          	sll	a2,a2,0x2
   12938:	0e010593          	add	a1,sp,224
   1293c:	00c58633          	add	a2,a1,a2
   12940:	00062787          	flw	fa5,0(a2)
   12944:	00078f1b          	sext.w	t5,a5
		stack[j] = stack[j - 1];
   12948:	020f1793          	sll	a5,t5,0x20
   1294c:	0207d793          	srl	a5,a5,0x20
   12950:	00179593          	sll	a1,a5,0x1
		if(stack[j - 1].t >= entry.t) break;
   12954:	a0f703d3          	fle.s	t2,fa4,fa5
		stack[j] = stack[j - 1];
   12958:	00f585b3          	add	a1,a1,a5
   1295c:	00259593          	sll	a1,a1,0x2
   12960:	0e010793          	add	a5,sp,224
   12964:	00b785b3          	add	a1,a5,a1
		if(stack[j - 1].t >= entry.t) break;
   12968:	000e879b          	sext.w	a5,t4
   1296c:	f8038ce3          	beqz	t2,12904 <_Z9intersectjRK32TesselationTree1SecondaryRayDataRK3RayR3Hit+0xc00>
   12970:	01c13c23          	sd	t3,24(sp)
	stack[j] = entry;
   12974:	0126f7b3          	and	a5,a3,s2
   12978:	00f887bb          	addw	a5,a7,a5
   1297c:	0127f7b3          	and	a5,a5,s2
   12980:	00f867b3          	or	a5,a6,a5
   12984:	01e6961b          	sllw	a2,a3,0x1e
   12988:	00c7e7b3          	or	a5,a5,a2
   1298c:	00f5a223          	sw	a5,4(a1)
   12990:	00e5a027          	fsw	fa4,0(a1)
   12994:	0155a423          	sw	s5,8(a1)
   12998:	00030793          	mv	a5,t1
}
   1299c:	e2dff06f          	j	127c8 <_Z9intersectjRK32TesselationTree1SecondaryRayDataRK3RayR3Hit+0xac4>
	return vec3(a[0] - b[0], a[1] - b[1], a[2] - b[2]);
   129a0:	0839f6d3          	fsub.s	fa3,fs3,ft3
   129a4:	0815f2d3          	fsub.s	ft5,fa1,ft1
   129a8:	08197653          	fsub.s	fa2,fs2,ft1
   129ac:	082573d3          	fsub.s	ft7,fa0,ft2
   129b0:	08307253          	fsub.s	ft4,ft0,ft3
   129b4:	09307853          	fsub.s	fa6,ft0,fs3
		(-(a[0] * b[2] - a[2] * b[0])),
   129b8:	1056f753          	fmul.s	fa4,fa3,ft5
	return vec3(a[0] - b[0], a[1] - b[1], a[2] - b[2]);
   129bc:	0801f8d3          	fsub.s	fa7,ft3,ft0
		(-(a[0] * b[2] - a[2] * b[0])),
   129c0:	03012987          	flw	fs3,48(sp)
	return vec3(a[0] - b[0], a[1] - b[1], a[2] - b[2]);
   129c4:	0824f053          	fsub.s	ft0,fs1,ft2
	return vec3(a[1] * b[2] - a[2] * b[1],
   129c8:	107671d3          	fmul.s	ft3,fa2,ft7
	return vec3(a[0] - b[0], a[1] - b[1], a[2] - b[2]);
   129cc:	0925f953          	fsub.s	fs2,fa1,fs2
	return vec3(a[1] * b[2] - a[2] * b[1],
   129d0:	70467ec7          	fmsub.s	ft9,fa2,ft4,fa4
	return vec3(a[0] - b[0], a[1] - b[1], a[2] - b[2]);
   129d4:	08b0f5d3          	fsub.s	fa1,ft1,fa1
		(-(a[0] * b[2] - a[2] * b[0])),
   129d8:	1109f753          	fmul.s	fa4,fs3,fa6
   129dc:	02c12087          	flw	ft1,44(sp)
	return vec3(a[1] * b[2] - a[2] * b[1],
   129e0:	18507f47          	fmsub.s	ft10,ft0,ft5,ft3
   129e4:	02012287          	flw	ft5,32(sp)
		(-(a[0] * b[2] - a[2] * b[0])),
   129e8:	1110f353          	fmul.s	ft6,ft1,fa7
	return vec3(a[1] * b[2] - a[2] * b[1],
   129ec:	02412f87          	flw	ft11,36(sp)
   129f0:	7122f747          	fmsub.s	fa4,ft5,fs2,fa4
   129f4:	02812287          	flw	ft5,40(sp)
	return a[0] * b[0] + a[1] * b[1] + a[2] * b[2];
   129f8:	00812e07          	flw	ft8,8(sp)
		(-(a[0] * b[2] - a[2] * b[0])),
   129fc:	10dbf0d3          	fmul.s	ft1,fs7,fa3
	return vec3(a[1] * b[2] - a[2] * b[1],
   12a00:	10b2f2d3          	fmul.s	ft5,ft5,fa1
   12a04:	30bff5c7          	fmsub.s	fa1,ft11,fa1,ft6
   12a08:	01412307          	flw	ft6,20(sp)
	return vec3(a[0] - b[0], a[1] - b[1], a[2] - b[2]);
   12a0c:	089574d3          	fsub.s	fs1,fa0,fs1
		a[0] * b[1] - a[1] * b[0]);
   12a10:	10407253          	fmul.s	ft4,ft0,ft4
	return vec3(a[0] - b[0], a[1] - b[1], a[2] - b[2]);
   12a14:	08a17553          	fsub.s	fa0,ft2,fa0
	return a[0] * b[0] + a[1] * b[1] + a[2] * b[2];
   12a18:	11de71d3          	fmul.s	ft3,ft8,ft9
	return vec3(a[1] * b[2] - a[2] * b[1],
   12a1c:	01812107          	flw	ft2,24(sp)
	return a[0] * b[0] + a[1] * b[1] + a[2] * b[2];
   12a20:	00c12f87          	flw	ft11,12(sp)
	return vec3(a[1] * b[2] - a[2] * b[1],
   12a24:	10c37353          	fmul.s	ft6,ft6,fa2
   12a28:	08c47647          	fmsub.s	fa2,fs0,fa2,ft1
   12a2c:	02c12087          	flw	ft1,44(sp)
   12a30:	11217153          	fmul.s	ft2,ft2,fs2
   12a34:	2076f247          	fmsub.s	ft4,fa3,ft7,ft4
   12a38:	28a0f0c7          	fmsub.s	ft1,ft1,fa0,ft5
	return a[0] * b[0] + a[1] * b[1] + a[2] * b[2];
   12a3c:	10be75d3          	fmul.s	fa1,ft8,fa1
		a[0] * b[1] - a[1] * b[0]);
   12a40:	02412287          	flw	ft5,36(sp)
	return a[0] * b[0] + a[1] * b[1] + a[2] * b[2];
   12a44:	19eff1c3          	fmadd.s	ft3,ft11,ft10,ft3
		a[0] * b[1] - a[1] * b[0]);
   12a48:	02012907          	flw	fs2,32(sp)
	return vec3(a[1] * b[2] - a[2] * b[1],
   12a4c:	1099f3c7          	fmsub.s	ft7,fs3,fs1,ft2
		a[0] * b[1] - a[1] * b[0]);
   12a50:	10a2f553          	fmul.s	fa0,ft5,fa0
	return vec3(a[1] * b[2] - a[2] * b[1],
   12a54:	300bf347          	fmsub.s	ft6,fs7,ft0,ft6
	return a[0] * b[0] + a[1] * b[1] + a[2] * b[2];
   12a58:	10ce7653          	fmul.s	fa2,ft8,fa2
		a[0] * b[1] - a[1] * b[0]);
   12a5c:	109974d3          	fmul.s	fs1,fs2,fs1
	return a[0] * b[0] + a[1] * b[1] + a[2] * b[2];
   12a60:	10ee7753          	fmul.s	fa4,ft8,fa4
		a[0] * b[1] - a[1] * b[0]);
   12a64:	10047053          	fmul.s	ft0,fs0,ft0
	return a[0] * b[0] + a[1] * b[1] + a[2] * b[2];
   12a68:	581ff0c3          	fmadd.s	ft1,ft11,ft1,fa1
   12a6c:	184df1c3          	fmadd.s	ft3,fs11,ft4,ft3
	return vec3(a[1] * b[2] - a[2] * b[1],
   12a70:	01412587          	flw	fa1,20(sp)
   12a74:	01812107          	flw	ft2,24(sp)
   12a78:	02812287          	flw	ft5,40(sp)
	return a[0] * b[0] + a[1] * b[1] + a[2] * b[2];
   12a7c:	707ff743          	fmadd.s	fa4,ft11,ft7,fa4
	return vec3(a[1] * b[2] - a[2] * b[1],
   12a80:	00d5f6c7          	fmsub.s	fa3,fa1,fa3,ft0
	return a[0] * b[0] + a[1] * b[1] + a[2] * b[2];
   12a84:	606ff343          	fmadd.s	ft6,ft11,ft6,fa2
	return vec3(a[1] * b[2] - a[2] * b[1],
   12a88:	49017147          	fmsub.s	ft2,ft2,fa6,fs1
   12a8c:	5112f547          	fmsub.s	fa0,ft5,fa7,fa0
	if(gn_dot_d > 0.0f) bc = -bc;
   12a90:	a03797d3          	flt.s	a5,fa5,ft3
	return a[0] * b[0] + a[1] * b[1] + a[2] * b[2];
   12a94:	702df5c3          	fmadd.s	fa1,fs11,ft2,fa4
   12a98:	08adf643          	fmadd.s	fa2,fs11,fa0,ft1
   12a9c:	30ddf743          	fmadd.s	fa4,fs11,fa3,ft6
   12aa0:	00078863          	beqz	a5,12ab0 <_Z9intersectjRK32TesselationTree1SecondaryRayDataRK3RayR3Hit+0xdac>
	inline vec3 operator-() const { return vec3(-e[0], -e[1], -e[2]); }
   12aa4:	20b595d3          	fneg.s	fa1,fa1
   12aa8:	20c61653          	fneg.s	fa2,fa2
   12aac:	20e71753          	fneg.s	fa4,fa4
	if(bc[0] < 0.0f || bc[1] < 0.0f || bc[2] < 0.0f) return false;
   12ab0:	f00007d3          	fmv.w.x	fa5,zero
   12ab4:	a0f597d3          	flt.s	a5,fa1,fa5
   12ab8:	06079263          	bnez	a5,12b1c <_Z9intersectjRK32TesselationTree1SecondaryRayDataRK3RayR3Hit+0xe18>
   12abc:	a0f617d3          	flt.s	a5,fa2,fa5
   12ac0:	04079e63          	bnez	a5,12b1c <_Z9intersectjRK32TesselationTree1SecondaryRayDataRK3RayR3Hit+0xe18>
   12ac4:	a0f717d3          	flt.s	a5,fa4,fa5
   12ac8:	04079a63          	bnez	a5,12b1c <_Z9intersectjRK32TesselationTree1SecondaryRayDataRK3RayR3Hit+0xe18>
	return a[0] * b[0] + a[1] * b[1] + a[2] * b[2];
   12acc:	01412787          	flw	fa5,20(sp)
	if(t < ray.t_min || t > hit.t) return false;
   12ad0:	00c42687          	flw	fa3,12(s0)
   12ad4:	11d7fe53          	fmul.s	ft8,fa5,ft9
   12ad8:	e1e47443          	fmadd.s	fs0,fs0,ft10,ft8
   12adc:	404bf7c3          	fmadd.s	fa5,fs7,ft4,fs0
	float t = rtm::dot(gn, tri.vrts[0] - ray.o) / gn_dot_d;
   12ae0:	1837f7d3          	fdiv.s	fa5,fa5,ft3
	if(t < ray.t_min || t > hit.t) return false;
   12ae4:	a0d797d3          	flt.s	a5,fa5,fa3
   12ae8:	02079a63          	bnez	a5,12b1c <_Z9intersectjRK32TesselationTree1SecondaryRayDataRK3RayR3Hit+0xe18>
   12aec:	a0fb17d3          	flt.s	a5,fs6,fa5
   12af0:	02079663          	bnez	a5,12b1c <_Z9intersectjRK32TesselationTree1SecondaryRayDataRK3RayR3Hit+0xe18>
	hit.bc = rtm::vec2(bc.x, bc.y) / (bc[0] + bc[1] + bc[2]);
   12af4:	00c5f6d3          	fadd.s	fa3,fa1,fa2
	hit.t = t ;
   12af8:	00f4a027          	fsw	fa5,0(s1)
				hit.id = node_index;
   12afc:	01e4a623          	sw	t5,12(s1)
				hit.patch_index = patch_index;
   12b00:	0144a823          	sw	s4,16(s1)
		uint32_t lod = current_node_entry.lod;
   12b04:	000e8893          	mv	a7,t4
	hit.bc = rtm::vec2(bc.x, bc.y) / (bc[0] + bc[1] + bc[2]);
   12b08:	00e6f753          	fadd.s	fa4,fa3,fa4
	return vec2(a.e[0] / b.e[0], a.e[1] / b.e[1]);
   12b0c:	18e5f7d3          	fdiv.s	fa5,fa1,fa4
   12b10:	18e67653          	fdiv.s	fa2,fa2,fa4
	e[0] = v[0];
   12b14:	00f4a227          	fsw	fa5,4(s1)
	e[1] = v[1];
   12b18:	00c4a427          	fsw	fa2,8(s1)
		const NodeStackEntry current_node_entry = node_stack[--node_stack_size];
   12b1c:	00030e13          	mv	t3,t1
	} while(node_stack_size);
   12b20:	c60e1a63          	bnez	t3,11f94 <_Z9intersectjRK32TesselationTree1SecondaryRayDataRK3RayR3Hit+0x290>
   12b24:	cbdff06f          	j	127e0 <_Z9intersectjRK32TesselationTree1SecondaryRayDataRK3RayR3Hit+0xadc>
	if(tri_type == 0) return Triangle(prnt_tri.vrts[0], cntr_tri.vrts[2], cntr_tri.vrts[1]);
   12b28:	3a069863          	bnez	a3,12ed8 <_Z9intersectjRK32TesselationTree1SecondaryRayDataRK3RayR3Hit+0x11d4>
	inline float operator[](int i) const { return e[i]; }
   12b2c:	00072807          	flw	fa6,0(a4)
   12b30:	00472e07          	flw	ft8,4(a4)
   12b34:	00872887          	flw	fa7,8(a4)
	e[2] = v[2];
   12b38:	02c12307          	flw	ft6,44(sp)
	e[1] = v[1];
   12b3c:	02812387          	flw	ft7,40(sp)
	e[0] = v[0];
   12b40:	02412207          	flw	ft4,36(sp)
	e[2] = v[2];
   12b44:	02012707          	flw	fa4,32(sp)
	e[1] = v[1];
   12b48:	01412187          	flw	ft3,20(sp)
	e[0] = v[0];
   12b4c:	01012287          	flw	ft5,16(sp)
	return v / length(v);
}

inline vec3 min(const vec3& a, const vec3& b)
{
	return vec3(std::min(a[0], b[0]), std::min(a[1], b[1]), std::min(a[2], b[2]));
   12b50:	285207d3          	fmin.s	fa5,ft4,ft5
   12b54:	29c18653          	fmin.s	fa2,ft3,ft8
   12b58:	291706d3          	fmin.s	fa3,fa4,fa7
   12b5c:	285212d3          	fmax.s	ft5,ft4,ft5
   12b60:	29c19253          	fmax.s	ft4,ft3,ft8
   12b64:	291711d3          	fmax.s	ft3,fa4,fa7
   12b68:	f0038753          	fmv.w.x	fa4,t2
   12b6c:	28e787d3          	fmin.s	fa5,fa5,fa4
   12b70:	f0030753          	fmv.w.x	fa4,t1
   12b74:	290787d3          	fmin.s	fa5,fa5,fa6
   12b78:	28e60653          	fmin.s	fa2,fa2,fa4
   12b7c:	f00f0753          	fmv.w.x	fa4,t5
   12b80:	28760653          	fmin.s	fa2,fa2,ft7
   12b84:	28e686d3          	fmin.s	fa3,fa3,fa4
   12b88:	f0058753          	fmv.w.x	fa4,a1
   12b8c:	286686d3          	fmin.s	fa3,fa3,ft6
}

inline vec3 max(const vec3& a, const vec3& b)
{
	return vec3(std::max(a[0], b[0]), std::max(a[1], b[1]), std::max(a[2], b[2]));
   12b90:	28e292d3          	fmax.s	ft5,ft5,fa4
   12b94:	f00e8753          	fmv.w.x	fa4,t4
   12b98:	290292d3          	fmax.s	ft5,ft5,fa6
   12b9c:	28e21253          	fmax.s	ft4,ft4,fa4
   12ba0:	f0060753          	fmv.w.x	fa4,a2
   12ba4:	28721253          	fmax.s	ft4,ft4,ft7
   12ba8:	28e191d3          	fmax.s	ft3,ft3,fa4
   12bac:	286191d3          	fmax.s	ft3,ft3,ft6
					for(uint32_t j = 0; j < 3; ++j)
   12bb0:	ba5ff06f          	j	12754 <_Z9intersectjRK32TesselationTree1SecondaryRayDataRK3RayR3Hit+0xa50>
   12bb4:	20a50bd3          	fmv.s	fs7,fa0
	e[0] = v[0];
   12bb8:	20e70153          	fmv.s	ft2,fa4
	inline float operator[](int i) const { return e[i]; }
   12bbc:	00072507          	flw	fa0,0(a4)
	e[2] = v[2];
   12bc0:	20108753          	fmv.s	fa4,ft1
	inline float operator[](int i) const { return e[i]; }
   12bc4:	00472607          	flw	fa2,4(a4)
   12bc8:	00872787          	flw	fa5,8(a4)
	e[2] = v[2];
   12bcc:	20b58fd3          	fmv.s	ft11,fa1
	e[1] = v[1];
   12bd0:	01412087          	flw	ft1,20(sp)
	e[0] = v[0];
   12bd4:	20000853          	fmv.s	fa6,ft0
	if(gn_dot_d > 0.0f) bc = -bc;
   12bd8:	f0000453          	fmv.w.x	fs0,zero
			for(uint32_t i = 0; i < 4; ++i)
   12bdc:	00000693          	li	a3,0
   12be0:	00400e13          	li	t3,4
	else if(tri_type == 1) return Triangle(cntr_tri.vrts[2], prnt_tri.vrts[1], cntr_tri.vrts[0]);
   12be4:	00100e93          	li	t4,1
	return vec3(a[0] - b[0], a[1] - b[1], a[2] - b[2]);
   12be8:	08a876d3          	fsub.s	fa3,fa6,fa0
   12bec:	08fff953          	fsub.s	fs2,ft11,fa5
   12bf0:	08f77053          	fsub.s	ft0,fa4,fa5
   12bf4:	08cbf4d3          	fsub.s	fs1,fs7,fa2
   12bf8:	08a171d3          	fsub.s	ft3,ft2,fa0
   12bfc:	09017ed3          	fsub.s	ft9,ft2,fa6
		(-(a[0] * b[2] - a[2] * b[0])),
   12c00:	1126f353          	fmul.s	ft6,fa3,fs2
	return vec3(a[0] - b[0], a[1] - b[1], a[2] - b[2]);
   12c04:	09577253          	fsub.s	ft4,fa4,fs5
   12c08:	08c0f2d3          	fsub.s	ft5,ft1,fa2
	return vec3(a[1] * b[2] - a[2] * b[1],
   12c0c:	10907b53          	fmul.s	fs6,ft0,fs1
	return vec3(a[0] - b[0], a[1] - b[1], a[2] - b[2]);
   12c10:	082579d3          	fsub.s	fs3,fa0,ft2
	return vec3(a[1] * b[2] - a[2] * b[1],
   12c14:	30307347          	fmsub.s	ft6,ft0,ft3,ft6
	return vec3(a[0] - b[0], a[1] - b[1], a[2] - b[2]);
   12c18:	08eff753          	fsub.s	fa4,ft11,fa4
   12c1c:	095fff53          	fsub.s	ft10,ft11,fs5
   12c20:	0957f8d3          	fsub.s	fa7,fa5,fs5
	return vec3(a[1] * b[2] - a[2] * b[1],
   12c24:	104ef5d3          	fmul.s	fa1,ft9,ft4
	return vec3(a[0] - b[0], a[1] - b[1], a[2] - b[2]);
   12c28:	09887853          	fsub.s	fa6,fa6,fs8
   12c2c:	0940fe53          	fsub.s	ft8,ft1,fs4
	return vec3(a[1] * b[2] - a[2] * b[1],
   12c30:	b122fb47          	fmsub.s	fs6,ft5,fs2,fs6
	return a[0] * b[0] + a[1] * b[1] + a[2] * b[2];
   12c34:	00812907          	flw	fs2,8(sp)
		a[0] * b[1] - a[1] * b[0]);
   12c38:	1032f1d3          	fmul.s	ft3,ft5,ft3
	return vec3(a[0] - b[0], a[1] - b[1], a[2] - b[2]);
   12c3c:	09f7f7d3          	fsub.s	fa5,fa5,ft11
   12c40:	094673d3          	fsub.s	ft7,fa2,fs4
   12c44:	094bffd3          	fsub.s	ft11,fs7,fs4
   12c48:	09817153          	fsub.s	ft2,ft2,fs8
   12c4c:	09857553          	fsub.s	fa0,fa0,fs8
	return a[0] * b[0] + a[1] * b[1] + a[2] * b[2];
   12c50:	10697953          	fmul.s	fs2,fs2,ft6
		(-(a[0] * b[2] - a[2] * b[0])),
   12c54:	01312c27          	fsw	fs3,24(sp)
	return vec3(a[1] * b[2] - a[2] * b[1],
   12c58:	02612c27          	fsw	ft6,56(sp)
		(-(a[0] * b[2] - a[2] * b[0])),
   12c5c:	11e9f9d3          	fmul.s	fs3,fs3,ft10
	return vec3(a[1] * b[2] - a[2] * b[1],
   12c60:	59077347          	fmsub.s	ft6,fa4,fa6,fa1
   12c64:	1116f5d3          	fmul.s	fa1,fa3,fa7
	return vec3(a[0] - b[0], a[1] - b[1], a[2] - b[2]);
   12c68:	081bf0d3          	fsub.s	ft1,fs7,ft1
   12c6c:	09767bd3          	fsub.s	fs7,fa2,fs7
	return vec3(a[1] * b[2] - a[2] * b[1],
   12c70:	11c77653          	fmul.s	fa2,fa4,ft8
   12c74:	1896f1c7          	fmsub.s	ft3,fa3,fs1,ft3
	return a[0] * b[0] + a[1] * b[1] + a[2] * b[2];
   12c78:	00c12487          	flw	fs1,12(sp)
	return vec3(a[1] * b[2] - a[2] * b[1],
   12c7c:	11f7f753          	fmul.s	fa4,fa5,ft11
   12c80:	9827f7c7          	fmsub.s	fa5,fa5,ft2,fs3
   12c84:	107079d3          	fmul.s	fs3,ft0,ft7
   12c88:	58a07047          	fmsub.s	ft0,ft0,fa0,fa1
   12c8c:	6040f247          	fmsub.s	ft4,ft1,ft4,fa2
	return a[0] * b[0] + a[1] * b[1] + a[2] * b[2];
   12c90:	9164f943          	fmadd.s	fs2,fs1,fs6,fs2
   12c94:	00812607          	flw	fa2,8(sp)
	return vec3(a[1] * b[2] - a[2] * b[1],
   12c98:	71ebf747          	fmsub.s	fa4,fs7,ft10,fa4
   12c9c:	9912f9c7          	fmsub.s	fs3,ft5,fa7,fs3
	return a[0] * b[0] + a[1] * b[1] + a[2] * b[2];
   12ca0:	10667353          	fmul.s	ft6,fa2,ft6
   12ca4:	10f677d3          	fmul.s	fa5,fa2,fa5
   12ca8:	10067053          	fmul.s	ft0,fa2,ft0
		a[0] * b[1] - a[1] * b[0]);
   12cac:	1100f0d3          	fmul.s	ft1,ft1,fa6
   12cb0:	102bfbd3          	fmul.s	fs7,fs7,ft2
   12cb4:	10a2f2d3          	fmul.s	ft5,ft5,fa0
	return a[0] * b[0] + a[1] * b[1] + a[2] * b[2];
   12cb8:	903df943          	fmadd.s	fs2,fs11,ft3,fs2
	return vec3(a[1] * b[2] - a[2] * b[1],
   12cbc:	01812607          	flw	fa2,24(sp)
   12cc0:	09cef0c7          	fmsub.s	ft1,ft9,ft8,ft1
	return a[0] * b[0] + a[1] * b[1] + a[2] * b[2];
   12cc4:	3044f243          	fmadd.s	ft4,fs1,ft4,ft6
	return vec3(a[1] * b[2] - a[2] * b[1],
   12cc8:	b9f675c7          	fmsub.s	fa1,fa2,ft11,fs7
	return a[0] * b[0] + a[1] * b[1] + a[2] * b[2];
   12ccc:	78e4f743          	fmadd.s	fa4,fs1,fa4,fa5
	return vec3(a[1] * b[2] - a[2] * b[1],
   12cd0:	2876f6c7          	fmsub.s	fa3,fa3,ft7,ft5
	return a[0] * b[0] + a[1] * b[1] + a[2] * b[2];
   12cd4:	0134f9c3          	fmadd.s	fs3,fs1,fs3,ft0
   12cd8:	a1241653          	flt.s	a2,fs0,fs2
   12cdc:	201df0c3          	fmadd.s	ft1,fs11,ft1,ft4
   12ce0:	70bdf5c3          	fmadd.s	fa1,fs11,fa1,fa4
   12ce4:	98ddf6c3          	fmadd.s	fa3,fs11,fa3,fs3
   12ce8:	00060863          	beqz	a2,12cf8 <_Z9intersectjRK32TesselationTree1SecondaryRayDataRK3RayR3Hit+0xff4>
	inline vec3 operator-() const { return vec3(-e[0], -e[1], -e[2]); }
   12cec:	201090d3          	fneg.s	ft1,ft1
   12cf0:	20b595d3          	fneg.s	fa1,fa1
   12cf4:	20d696d3          	fneg.s	fa3,fa3
	if(bc[0] < 0.0f || bc[1] < 0.0f || bc[2] < 0.0f) return false;
   12cf8:	a0809653          	flt.s	a2,ft1,fs0
   12cfc:	06061663          	bnez	a2,12d68 <_Z9intersectjRK32TesselationTree1SecondaryRayDataRK3RayR3Hit+0x1064>
   12d00:	a0859653          	flt.s	a2,fa1,fs0
   12d04:	06061263          	bnez	a2,12d68 <_Z9intersectjRK32TesselationTree1SecondaryRayDataRK3RayR3Hit+0x1064>
   12d08:	a0869653          	flt.s	a2,fa3,fs0
   12d0c:	04061e63          	bnez	a2,12d68 <_Z9intersectjRK32TesselationTree1SecondaryRayDataRK3RayR3Hit+0x1064>
	return a[0] * b[0] + a[1] * b[1] + a[2] * b[2];
   12d10:	03812787          	flw	fa5,56(sp)
	if(t < ray.t_min || t > hit.t) return false;
   12d14:	00c42707          	flw	fa4,12(s0)
   12d18:	10f3f3d3          	fmul.s	ft7,ft7,fa5
   12d1c:	39657543          	fmadd.s	fa0,fa0,fs6,ft7
   12d20:	5038f7c3          	fmadd.s	fa5,fa7,ft3,fa0
	float t = rtm::dot(gn, tri.vrts[0] - ray.o) / gn_dot_d;
   12d24:	1927f7d3          	fdiv.s	fa5,fa5,fs2
	if(t < ray.t_min || t > hit.t) return false;
   12d28:	a0e79653          	flt.s	a2,fa5,fa4
   12d2c:	02061e63          	bnez	a2,12d68 <_Z9intersectjRK32TesselationTree1SecondaryRayDataRK3RayR3Hit+0x1064>
   12d30:	0004a707          	flw	fa4,0(s1)
   12d34:	a0f71653          	flt.s	a2,fa4,fa5
   12d38:	02061863          	bnez	a2,12d68 <_Z9intersectjRK32TesselationTree1SecondaryRayDataRK3RayR3Hit+0x1064>
	hit.bc = rtm::vec2(bc.x, bc.y) / (bc[0] + bc[1] + bc[2]);
   12d3c:	00b0f753          	fadd.s	fa4,ft1,fa1
	hit.t = t ;
   12d40:	00f4a027          	fsw	fa5,0(s1)
					hit.id = first_child_index + i;
   12d44:	00df063b          	addw	a2,t5,a3
   12d48:	00c4a623          	sw	a2,12(s1)
					hit.patch_index = patch_index;
   12d4c:	0144a823          	sw	s4,16(s1)
	hit.bc = rtm::vec2(bc.x, bc.y) / (bc[0] + bc[1] + bc[2]);
   12d50:	00d777d3          	fadd.s	fa5,fa4,fa3
	e[0] = v[0];
   12d54:	00078893          	mv	a7,a5
	return vec2(a.e[0] / b.e[0], a.e[1] / b.e[1]);
   12d58:	18f0f0d3          	fdiv.s	ft1,ft1,fa5
   12d5c:	18f5f5d3          	fdiv.s	fa1,fa1,fa5
	e[0] = v[0];
   12d60:	0014a227          	fsw	ft1,4(s1)
	e[1] = v[1];
   12d64:	00b4a427          	fsw	fa1,8(s1)
			for(uint32_t i = 0; i < 4; ++i)
   12d68:	0016869b          	addw	a3,a3,1
   12d6c:	1dc68e63          	beq	a3,t3,12f48 <_Z9intersectjRK32TesselationTree1SecondaryRayDataRK3RayR3Hit+0x1244>
   12d70:	21d68463          	beq	a3,t4,12f78 <_Z9intersectjRK32TesselationTree1SecondaryRayDataRK3RayR3Hit+0x1274>
	else if(tri_type == 2) return Triangle(cntr_tri.vrts[1], cntr_tri.vrts[0], prnt_tri.vrts[2]);
   12d74:	00200613          	li	a2,2
   12d78:	24c68463          	beq	a3,a2,12fc0 <_Z9intersectjRK32TesselationTree1SecondaryRayDataRK3RayR3Hit+0x12bc>
	e[2] = v[2];
   12d7c:	02012f87          	flw	ft11,32(sp)
	e[1] = v[1];
   12d80:	01412b87          	flw	fs7,20(sp)
	e[0] = v[0];
   12d84:	01012107          	flw	ft2,16(sp)
	e[2] = v[2];
   12d88:	02c12707          	flw	fa4,44(sp)
	e[1] = v[1];
   12d8c:	02812087          	flw	ft1,40(sp)
	e[0] = v[0];
   12d90:	02412807          	flw	fa6,36(sp)
	e[2] = v[2];
   12d94:	04812787          	flw	fa5,72(sp)
	e[1] = v[1];
   12d98:	03412607          	flw	fa2,52(sp)
	e[0] = v[0];
   12d9c:	03012507          	flw	fa0,48(sp)
	Triangle(const rtm::vec3& v0, const rtm::vec3& v1, const rtm::vec3& v2)
	{
		this->vrts[0] = v0;
		this->vrts[1] = v1;
		this->vrts[2] = v2;
	}
   12da0:	00300693          	li	a3,3
   12da4:	e45ff06f          	j	12be8 <_Z9intersectjRK32TesselationTree1SecondaryRayDataRK3RayR3Hit+0xee4>
			tri_stack[lod].tri = reconstruct_triangle(tri_stack[lod - 1u].tri, tri_stack[lod - 1u].new_center_tri, tri_type);
   12da8:	fffe891b          	addw	s2,t4,-1 # 3bffffff <__global_pointer$+0x3bfe55af>
   12dac:	02091913          	sll	s2,s2,0x20
   12db0:	02095913          	srl	s2,s2,0x20
   12db4:	02b905b3          	mul	a1,s2,a1
   12db8:	20010613          	add	a2,sp,512
		uint32_t tri_type = current_node_entry.tri_type;
   12dbc:	0006899b          	sext.w	s3,a3
			tri_stack[lod].tri = reconstruct_triangle(tri_stack[lod - 1u].tri, tri_stack[lod - 1u].new_center_tri, tri_type);
   12dc0:	02458393          	add	t2,a1,36
   12dc4:	007603b3          	add	t2,a2,t2
   12dc8:	00b605b3          	add	a1,a2,a1
	if(tri_type == 0) return Triangle(prnt_tri.vrts[0], cntr_tri.vrts[2], cntr_tri.vrts[1]);
   12dcc:	14069263          	bnez	a3,12f10 <_Z9intersectjRK32TesselationTree1SecondaryRayDataRK3RayR3Hit+0x120c>
	inline float operator[](int i) const { return e[i]; }
   12dd0:	0005a687          	flw	fa3,0(a1)
   12dd4:	0045a707          	flw	fa4,4(a1)
   12dd8:	0085a787          	flw	fa5,8(a1)
   12ddc:	0183a507          	flw	fa0,24(t2)
   12de0:	01c3a587          	flw	fa1,28(t2)
   12de4:	0203a607          	flw	fa2,32(t2)
   12de8:	00c3a107          	flw	ft2,12(t2)
   12dec:	0103a087          	flw	ft1,16(t2)
   12df0:	0143a007          	flw	ft0,20(t2)
			tri_stack[lod].shared_edge = propagate_shared_edge(tri_stack[lod - 1u].shared_edge, tri_type);
   12df4:	04c00693          	li	a3,76
   12df8:	02d90933          	mul	s2,s2,a3
   12dfc:	0d010613          	add	a2,sp,208
	e[0] = v[0];
   12e00:	00d72027          	fsw	fa3,0(a4)
	e[1] = v[1];
   12e04:	00e72227          	fsw	fa4,4(a4)
	e[2] = v[2];
   12e08:	00f72427          	fsw	fa5,8(a4)
	e[0] = v[0];
   12e0c:	00a72627          	fsw	fa0,12(a4)
	e[1] = v[1];
   12e10:	00b72827          	fsw	fa1,16(a4)
	e[2] = v[2];
   12e14:	00c72a27          	fsw	fa2,20(a4)
	e[0] = v[0];
   12e18:	00272c27          	fsw	ft2,24(a4)
	e[1] = v[1];
   12e1c:	00172e27          	fsw	ft1,28(a4)
   12e20:	3c090693          	add	a3,s2,960
	e[2] = v[2];
   12e24:	02072027          	fsw	ft0,32(a4)
   12e28:	00c68933          	add	s2,a3,a2
   12e2c:	db894683          	lbu	a3,-584(s2)
	if(prnt_shrd_edg == 3 || tri_typ == 3 || prnt_shrd_edg == tri_typ) return 3;
   12e30:	00300593          	li	a1,3
   12e34:	0006839b          	sext.w	t2,a3
   12e38:	18b68063          	beq	a3,a1,12fb8 <_Z9intersectjRK32TesselationTree1SecondaryRayDataRK3RayR3Hit+0x12b4>
   12e3c:	16b98e63          	beq	s3,a1,12fb8 <_Z9intersectjRK32TesselationTree1SecondaryRayDataRK3RayR3Hit+0x12b4>
   12e40:	17338c63          	beq	t2,s3,12fb8 <_Z9intersectjRK32TesselationTree1SecondaryRayDataRK3RayR3Hit+0x12b4>
   12e44:	04c00593          	li	a1,76
   12e48:	02be85b3          	mul	a1,t4,a1
   12e4c:	3c058613          	add	a2,a1,960
   12e50:	0d010593          	add	a1,sp,208
   12e54:	00b605b3          	add	a1,a2,a1
   12e58:	dad58c23          	sb	a3,-584(a1)
		bool edge_mask[3] = {patch_index == data.last_patch_index || tri_stack[lod].shared_edge == 0, patch_index == data.last_patch_index || tri_stack[lod].shared_edge == 1, patch_index == data.last_patch_index || tri_stack[lod].shared_edge == 2};
   12e5c:	a9fa1c63          	bne	s4,t6,120f4 <_Z9intersectjRK32TesselationTree1SecondaryRayDataRK3RayR3Hit+0x3f0>
   12e60:	00100a93          	li	s5,1
   12e64:	00100593          	li	a1,1
   12e68:	00100993          	li	s3,1
   12e6c:	ab4ff06f          	j	12120 <_Z9intersectjRK32TesselationTree1SecondaryRayDataRK3RayR3Hit+0x41c>
	else             r[1] = std::min(     dlen[2],      dlen[0]) *      ray.drdt +      ray.radius;
   12e70:	28460253          	fmin.s	ft4,fa2,ft4
   12e74:	02042287          	flw	ft5,32(s0)
   12e78:	02442387          	flw	ft7,36(s0)
   12e7c:	3842f2c3          	fmadd.s	ft5,ft5,ft4,ft7
	if(edge_mask[2]) r[2] = std::min(last_dlen[0], last_dlen[1]) * last_ray.drdt + last_ray.radius;
   12e80:	c0099263          	bnez	s3,12284 <_Z9intersectjRK32TesselationTree1SecondaryRayDataRK3RayR3Hit+0x580>
	else             r[2] = std::min(     dlen[0],      dlen[1]) *      ray.drdt +      ray.radius;
   12e84:	29060653          	fmin.s	fa2,fa2,fa6
   12e88:	02042387          	flw	ft7,32(s0)
   12e8c:	02442207          	flw	ft4,36(s0)
   12e90:	20c3f643          	fmadd.s	fa2,ft7,fa2,ft4
   12e94:	c00ff06f          	j	12294 <_Z9intersectjRK32TesselationTree1SecondaryRayDataRK3RayR3Hit+0x590>
	else             r[0] = std::min(     dlen[1],      dlen[2]) *      ray.drdt +      ray.radius;
   12e98:	28480353          	fmin.s	ft6,fa6,ft4
   12e9c:	02042387          	flw	ft7,32(s0)
   12ea0:	02442f07          	flw	ft10,36(s0)
   12ea4:	f063f343          	fmadd.s	ft6,ft7,ft6,ft10
   12ea8:	bc4ff06f          	j	1226c <_Z9intersectjRK32TesselationTree1SecondaryRayDataRK3RayR3Hit+0x568>
	return (u & (1 << 23)) ? 1.0 : as_f32(u | 0x3f800000) * 2.0f - 3.0f;
   12eac:	258c2707          	flw	fa4,600(s8)
   12eb0:	d90ff06f          	j	12440 <_Z9intersectjRK32TesselationTree1SecondaryRayDataRK3RayR3Hit+0x73c>
   12eb4:	258c2787          	flw	fa5,600(s8)
   12eb8:	d54ff06f          	j	1240c <_Z9intersectjRK32TesselationTree1SecondaryRayDataRK3RayR3Hit+0x708>
   12ebc:	258c2687          	flw	fa3,600(s8)
   12ec0:	d10ff06f          	j	123d0 <_Z9intersectjRK32TesselationTree1SecondaryRayDataRK3RayR3Hit+0x6cc>
   12ec4:	258c2607          	flw	fa2,600(s8)
   12ec8:	cd4ff06f          	j	1239c <_Z9intersectjRK32TesselationTree1SecondaryRayDataRK3RayR3Hit+0x698>
   12ecc:	01c13c23          	sd	t3,24(sp)
   12ed0:	00060593          	mv	a1,a2
   12ed4:	aa1ff06f          	j	12974 <_Z9intersectjRK32TesselationTree1SecondaryRayDataRK3RayR3Hit+0xc70>
	else if(tri_type == 1) return Triangle(cntr_tri.vrts[2], prnt_tri.vrts[1], cntr_tri.vrts[0]);
   12ed8:	00100e13          	li	t3,1
   12edc:	11c68663          	beq	a3,t3,12fe8 <_Z9intersectjRK32TesselationTree1SecondaryRayDataRK3RayR3Hit+0x12e4>
	else if(tri_type == 2) return Triangle(cntr_tri.vrts[1], cntr_tri.vrts[0], prnt_tri.vrts[2]);
   12ee0:	00200e13          	li	t3,2
   12ee4:	19c68263          	beq	a3,t3,13068 <_Z9intersectjRK32TesselationTree1SecondaryRayDataRK3RayR3Hit+0x1364>
   12ee8:	02012307          	flw	ft6,32(sp)
	e[1] = v[1];
   12eec:	01412387          	flw	ft7,20(sp)
	e[0] = v[0];
   12ef0:	01012207          	flw	ft4,16(sp)
	e[2] = v[2];
   12ef4:	02c12707          	flw	fa4,44(sp)
	e[1] = v[1];
   12ef8:	02812187          	flw	ft3,40(sp)
	e[0] = v[0];
   12efc:	02412287          	flw	ft5,36(sp)
	e[2] = v[2];
   12f00:	04812887          	flw	fa7,72(sp)
	e[1] = v[1];
   12f04:	03412e07          	flw	ft8,52(sp)
	e[0] = v[0];
   12f08:	03012807          	flw	fa6,48(sp)
   12f0c:	c45ff06f          	j	12b50 <_Z9intersectjRK32TesselationTree1SecondaryRayDataRK3RayR3Hit+0xe4c>
	else if(tri_type == 1) return Triangle(cntr_tri.vrts[2], prnt_tri.vrts[1], cntr_tri.vrts[0]);
   12f10:	00100693          	li	a3,1
	inline float operator[](int i) const { return e[i]; }
   12f14:	0003a687          	flw	fa3,0(t2)
   12f18:	0043a707          	flw	fa4,4(t2)
   12f1c:	0083a787          	flw	fa5,8(t2)
   12f20:	0ed98c63          	beq	s3,a3,13018 <_Z9intersectjRK32TesselationTree1SecondaryRayDataRK3RayR3Hit+0x1314>
	else if(tri_type == 2) return Triangle(cntr_tri.vrts[1], cntr_tri.vrts[0], prnt_tri.vrts[2]);
   12f24:	00200693          	li	a3,2
   12f28:	00c3a507          	flw	fa0,12(t2)
   12f2c:	0103a587          	flw	fa1,16(t2)
   12f30:	0143a607          	flw	fa2,20(t2)
   12f34:	14d98e63          	beq	s3,a3,13090 <_Z9intersectjRK32TesselationTree1SecondaryRayDataRK3RayR3Hit+0x138c>
   12f38:	0183a107          	flw	ft2,24(t2)
   12f3c:	01c3a087          	flw	ft1,28(t2)
   12f40:	0203a007          	flw	ft0,32(t2)
   12f44:	eb1ff06f          	j	12df4 <_Z9intersectjRK32TesselationTree1SecondaryRayDataRK3RayR3Hit+0x10f0>
		const NodeStackEntry current_node_entry = node_stack[--node_stack_size];
   12f48:	00030793          	mv	a5,t1
   12f4c:	00078e13          	mv	t3,a5
   12f50:	88dff06f          	j	127dc <_Z9intersectjRK32TesselationTree1SecondaryRayDataRK3RayR3Hit+0xad8>
			else if(hit.bc.x + hit.bc.y < 1.0f)
   12f54:	00d67053          	fadd.s	ft0,fa2,fa3
	e[0] *= v.e[0];
   12f58:	20c607d3          	fmv.s	fa5,fa2
	e[1] *= v.e[1];
   12f5c:	20d68753          	fmv.s	fa4,fa3
				tri_type = 3;
   12f60:	00300693          	li	a3,3
			else if(hit.bc.x + hit.bc.y < 1.0f)
   12f64:	a0a01553          	flt.s	a0,ft0,fa0
   12f68:	0a051463          	bnez	a0,13010 <_Z9intersectjRK32TesselationTree1SecondaryRayDataRK3RayR3Hit+0x130c>
	return vec2(a[0] - b[0], a[1] - b[1]);
   12f6c:	08c577d3          	fsub.s	fa5,fa0,fa2
   12f70:	08d57753          	fsub.s	fa4,fa0,fa3
	vec2(float e0, float e1) { e[0] = e0; e[1] = e1; }
   12f74:	8adff06f          	j	12820 <_Z9intersectjRK32TesselationTree1SecondaryRayDataRK3RayR3Hit+0xb1c>
   12f78:	00c72807          	flw	fa6,12(a4)
   12f7c:	01072087          	flw	ft1,16(a4)
   12f80:	01472707          	flw	fa4,20(a4)
	e[2] = v[2];
   12f84:	04812f87          	flw	ft11,72(sp)
	e[1] = v[1];
   12f88:	03412b87          	flw	fs7,52(sp)
	e[0] = v[0];
   12f8c:	03012107          	flw	ft2,48(sp)
	e[2] = v[2];
   12f90:	02012787          	flw	fa5,32(sp)
	e[1] = v[1];
   12f94:	01412607          	flw	fa2,20(sp)
	e[0] = v[0];
   12f98:	01012507          	flw	fa0,16(sp)
   12f9c:	c4dff06f          	j	12be8 <_Z9intersectjRK32TesselationTree1SecondaryRayDataRK3RayR3Hit+0xee4>
	if(match_mask == 6) return 0;
   12fa0:	08013683          	ld	a3,128(sp)
   12fa4:	07813603          	ld	a2,120(sp)
   12fa8:	1ec69463          	bne	a3,a2,13190 <_Z9intersectjRK32TesselationTree1SecondaryRayDataRK3RayR3Hit+0x148c>
			else                            tri_stack[0].shared_edge = 3;
   12fac:	00300693          	li	a3,3
   12fb0:	24d10423          	sb	a3,584(sp)
   12fb4:	93cff06f          	j	120f0 <_Z9intersectjRK32TesselationTree1SecondaryRayDataRK3RayR3Hit+0x3ec>
   12fb8:	00300693          	li	a3,3
   12fbc:	e89ff06f          	j	12e44 <_Z9intersectjRK32TesselationTree1SecondaryRayDataRK3RayR3Hit+0x1140>
	inline float operator[](int i) const { return e[i]; }
   12fc0:	01872107          	flw	ft2,24(a4)
   12fc4:	01c72b87          	flw	fs7,28(a4)
   12fc8:	02072f87          	flw	ft11,32(a4)
	e[2] = v[2];
   12fcc:	04812707          	flw	fa4,72(sp)
	e[1] = v[1];
   12fd0:	03412087          	flw	ft1,52(sp)
	e[0] = v[0];
   12fd4:	03012807          	flw	fa6,48(sp)
	e[2] = v[2];
   12fd8:	02c12787          	flw	fa5,44(sp)
	e[1] = v[1];
   12fdc:	02812607          	flw	fa2,40(sp)
	e[0] = v[0];
   12fe0:	02412507          	flw	fa0,36(sp)
   12fe4:	c05ff06f          	j	12be8 <_Z9intersectjRK32TesselationTree1SecondaryRayDataRK3RayR3Hit+0xee4>
	inline float operator[](int i) const { return e[i]; }
   12fe8:	00c72287          	flw	ft5,12(a4)
   12fec:	01072187          	flw	ft3,16(a4)
   12ff0:	01472707          	flw	fa4,20(a4)
	e[2] = v[2];
   12ff4:	04812307          	flw	ft6,72(sp)
	e[1] = v[1];
   12ff8:	03412387          	flw	ft7,52(sp)
	e[0] = v[0];
   12ffc:	03012207          	flw	ft4,48(sp)
	e[2] = v[2];
   13000:	02012887          	flw	fa7,32(sp)
	e[1] = v[1];
   13004:	01412e07          	flw	ft8,20(sp)
	e[0] = v[0];
   13008:	01012807          	flw	fa6,16(sp)
   1300c:	b45ff06f          	j	12b50 <_Z9intersectjRK32TesselationTree1SecondaryRayDataRK3RayR3Hit+0xe4c>
				tri_type = 2;
   13010:	00200693          	li	a3,2
   13014:	80dff06f          	j	12820 <_Z9intersectjRK32TesselationTree1SecondaryRayDataRK3RayR3Hit+0xb1c>
	e[2] = v[2];
   13018:	20f78053          	fmv.s	ft0,fa5
	e[1] = v[1];
   1301c:	20e700d3          	fmv.s	ft1,fa4
	e[0] = v[0];
   13020:	20d68153          	fmv.s	ft2,fa3
	inline float operator[](int i) const { return e[i]; }
   13024:	00c5a507          	flw	fa0,12(a1)
   13028:	0105a587          	flw	fa1,16(a1)
   1302c:	0145a607          	flw	fa2,20(a1)
	e[2] = v[2];
   13030:	0203a787          	flw	fa5,32(t2)
	e[1] = v[1];
   13034:	01c3a707          	flw	fa4,28(t2)
	e[0] = v[0];
   13038:	0183a687          	flw	fa3,24(t2)
   1303c:	db9ff06f          	j	12df4 <_Z9intersectjRK32TesselationTree1SecondaryRayDataRK3RayR3Hit+0x10f0>
			tri_stack[lod].child_transformed = (edge_states[0] < 1.0f) || (edge_states[1] < 1.0f) || (edge_states[2] < 1.0f) || ((lod != 0) && tri_stack[lod - 1].child_transformed);
   13040:	fffe859b          	addw	a1,t4,-1
   13044:	02059593          	sll	a1,a1,0x20
   13048:	0205d593          	srl	a1,a1,0x20
   1304c:	04c00e93          	li	t4,76
   13050:	03d585b3          	mul	a1,a1,t4
   13054:	3c058613          	add	a2,a1,960
   13058:	0d010593          	add	a1,sp,208
   1305c:	00b605b3          	add	a1,a2,a1
   13060:	db95c983          	lbu	s3,-583(a1)
   13064:	e20ff06f          	j	12684 <_Z9intersectjRK32TesselationTree1SecondaryRayDataRK3RayR3Hit+0x980>
	inline float operator[](int i) const { return e[i]; }
   13068:	01872207          	flw	ft4,24(a4)
   1306c:	01c72387          	flw	ft7,28(a4)
   13070:	02072307          	flw	ft6,32(a4)
	e[2] = v[2];
   13074:	04812707          	flw	fa4,72(sp)
	e[1] = v[1];
   13078:	03412187          	flw	ft3,52(sp)
	e[0] = v[0];
   1307c:	03012287          	flw	ft5,48(sp)
	e[2] = v[2];
   13080:	02c12887          	flw	fa7,44(sp)
	e[1] = v[1];
   13084:	02812e07          	flw	ft8,40(sp)
	e[0] = v[0];
   13088:	02412807          	flw	fa6,36(sp)
   1308c:	ac5ff06f          	j	12b50 <_Z9intersectjRK32TesselationTree1SecondaryRayDataRK3RayR3Hit+0xe4c>
	inline float operator[](int i) const { return e[i]; }
   13090:	20f782d3          	fmv.s	ft5,fa5
   13094:	20e70253          	fmv.s	ft4,fa4
   13098:	20d681d3          	fmv.s	ft3,fa3
	e[2] = v[2];
   1309c:	20c607d3          	fmv.s	fa5,fa2
	e[1] = v[1];
   130a0:	20b58753          	fmv.s	fa4,fa1
	e[0] = v[0];
   130a4:	20a506d3          	fmv.s	fa3,fa0
	inline float operator[](int i) const { return e[i]; }
   130a8:	0185a107          	flw	ft2,24(a1)
   130ac:	01c5a087          	flw	ft1,28(a1)
   130b0:	0205a007          	flw	ft0,32(a1)
	e[2] = v[2];
   130b4:	20528653          	fmv.s	fa2,ft5
	e[1] = v[1];
   130b8:	204205d3          	fmv.s	fa1,ft4
	e[0] = v[0];
   130bc:	20318553          	fmv.s	fa0,ft3
   130c0:	d35ff06f          	j	12df4 <_Z9intersectjRK32TesselationTree1SecondaryRayDataRK3RayR3Hit+0x10f0>
{
public:
	uint32_t e[3];

	uvec3() = default;
	uvec3(uint32_t i) { e[0] = i;  e[1] = i; e[2] = i; }
   130c4:	06013c23          	sd	zero,120(sp)
   130c8:	08013423          	sd	zero,136(sp)
   130cc:	04013c23          	sd	zero,88(sp)
   130d0:	e11fe06f          	j	11ee0 <_Z9intersectjRK32TesselationTree1SecondaryRayDataRK3RayR3Hit+0x1dc>
				match_mask |= 1 << i;
   130d4:	0c013683          	ld	a3,192(sp)
   130d8:	0026e593          	or	a1,a3,2
			if(crnt_ptch_inds[i] == prev_ptch_inds[j])
   130dc:	05813683          	ld	a3,88(sp)
   130e0:	ecd800e3          	beq	a6,a3,12fa0 <_Z9intersectjRK32TesselationTree1SecondaryRayDataRK3RayR3Hit+0x129c>
   130e4:	08813683          	ld	a3,136(sp)
   130e8:	ead80ce3          	beq	a6,a3,12fa0 <_Z9intersectjRK32TesselationTree1SecondaryRayDataRK3RayR3Hit+0x129c>
   130ec:	07813683          	ld	a3,120(sp)
   130f0:	08d80a63          	beq	a6,a3,13184 <_Z9intersectjRK32TesselationTree1SecondaryRayDataRK3RayR3Hit+0x1480>
			if(data.last_patch_index != ~0) tri_stack[0].shared_edge = find_shared_edge(header.vi, previous_patch_indices);
   130f4:	00500693          	li	a3,5
   130f8:	40b686bb          	subw	a3,a3,a1
   130fc:	0ff6f693          	zext.b	a3,a3
			else                            tri_stack[0].shared_edge = 3;
   13100:	24d10423          	sb	a3,584(sp)
   13104:	fedfe06f          	j	120f0 <_Z9intersectjRK32TesselationTree1SecondaryRayDataRK3RayR3Hit+0x3ec>
	stack[j] = entry;
   13108:	020d9613          	sll	a2,s11,0x20
   1310c:	02065613          	srl	a2,a2,0x20
   13110:	00161793          	sll	a5,a2,0x1
   13114:	00c787b3          	add	a5,a5,a2
   13118:	00279793          	sll	a5,a5,0x2
   1311c:	0e010613          	add	a2,sp,224
   13120:	00f605b3          	add	a1,a2,a5
   13124:	851ff06f          	j	12974 <_Z9intersectjRK32TesselationTree1SecondaryRayDataRK3RayR3Hit+0xc70>
				match_mask |= 1 << i;
   13128:	0045e593          	or	a1,a1,4
	if(match_mask == 5) return 1; 
   1312c:	00500393          	li	t2,5
   13130:	00300693          	li	a3,3
   13134:	00758463          	beq	a1,t2,1313c <_Z9intersectjRK32TesselationTree1SecondaryRayDataRK3RayR3Hit+0x1438>
   13138:	fb5fe06f          	j	120ec <_Z9intersectjRK32TesselationTree1SecondaryRayDataRK3RayR3Hit+0x3e8>
   1313c:	00100693          	li	a3,1
   13140:	24d10423          	sb	a3,584(sp)
   13144:	fadfe06f          	j	120f0 <_Z9intersectjRK32TesselationTree1SecondaryRayDataRK3RayR3Hit+0x3ec>
			if(crnt_ptch_inds[i] == prev_ptch_inds[j])
   13148:	0b813683          	ld	a3,184(sp)
   1314c:	05813603          	ld	a2,88(sp)
   13150:	06c68663          	beq	a3,a2,131bc <_Z9intersectjRK32TesselationTree1SecondaryRayDataRK3RayR3Hit+0x14b8>
   13154:	08813603          	ld	a2,136(sp)
   13158:	04c68263          	beq	a3,a2,1319c <_Z9intersectjRK32TesselationTree1SecondaryRayDataRK3RayR3Hit+0x1498>
   1315c:	07813603          	ld	a2,120(sp)
				match_mask |= 1 << i;
   13160:	00100593          	li	a1,1
			if(crnt_ptch_inds[i] == prev_ptch_inds[j])
   13164:	00c68463          	beq	a3,a2,1316c <_Z9intersectjRK32TesselationTree1SecondaryRayDataRK3RayR3Hit+0x1468>
   13168:	f5dfe06f          	j	120c4 <_Z9intersectjRK32TesselationTree1SecondaryRayDataRK3RayR3Hit+0x3c0>
   1316c:	05813683          	ld	a3,88(sp)
   13170:	e2d80ee3          	beq	a6,a3,12fac <_Z9intersectjRK32TesselationTree1SecondaryRayDataRK3RayR3Hit+0x12a8>
   13174:	08813683          	ld	a3,136(sp)
   13178:	e2d80ae3          	beq	a6,a3,12fac <_Z9intersectjRK32TesselationTree1SecondaryRayDataRK3RayR3Hit+0x12a8>
				match_mask |= 1 << i;
   1317c:	00300593          	li	a1,3
   13180:	f6dff06f          	j	130ec <_Z9intersectjRK32TesselationTree1SecondaryRayDataRK3RayR3Hit+0x13e8>
	if(match_mask == 6) return 0;
   13184:	0045e593          	or	a1,a1,4
   13188:	00600693          	li	a3,6
   1318c:	e2d590e3          	bne	a1,a3,12fac <_Z9intersectjRK32TesselationTree1SecondaryRayDataRK3RayR3Hit+0x12a8>
   13190:	00000693          	li	a3,0
   13194:	24d10423          	sb	a3,584(sp)
   13198:	f59fe06f          	j	120f0 <_Z9intersectjRK32TesselationTree1SecondaryRayDataRK3RayR3Hit+0x3ec>
			if(crnt_ptch_inds[i] == prev_ptch_inds[j])
   1319c:	05813683          	ld	a3,88(sp)
   131a0:	e0d806e3          	beq	a6,a3,12fac <_Z9intersectjRK32TesselationTree1SecondaryRayDataRK3RayR3Hit+0x12a8>
   131a4:	0b813683          	ld	a3,184(sp)
   131a8:	e0d802e3          	beq	a6,a3,12fac <_Z9intersectjRK32TesselationTree1SecondaryRayDataRK3RayR3Hit+0x12a8>
   131ac:	07813683          	ld	a3,120(sp)
   131b0:	ded80ee3          	beq	a6,a3,12fac <_Z9intersectjRK32TesselationTree1SecondaryRayDataRK3RayR3Hit+0x12a8>
				match_mask |= 1 << i;
   131b4:	00300593          	li	a1,3
   131b8:	f3dff06f          	j	130f4 <_Z9intersectjRK32TesselationTree1SecondaryRayDataRK3RayR3Hit+0x13f0>
			if(crnt_ptch_inds[i] == prev_ptch_inds[j])
   131bc:	ded808e3          	beq	a6,a3,12fac <_Z9intersectjRK32TesselationTree1SecondaryRayDataRK3RayR3Hit+0x12a8>
   131c0:	08813683          	ld	a3,136(sp)
   131c4:	fed814e3          	bne	a6,a3,131ac <_Z9intersectjRK32TesselationTree1SecondaryRayDataRK3RayR3Hit+0x14a8>
   131c8:	00300693          	li	a3,3
   131cc:	de5ff06f          	j	12fb0 <_Z9intersectjRK32TesselationTree1SecondaryRayDataRK3RayR3Hit+0x12ac>

00000000000131d0 <_Z9intersectjRK32TesselationTree4SecondaryRayDataRK3RayR3Hit>:


///////////////////////////////////secondary\\\\\\\\\\\\\\\\\\\\\\\\\\\\\\\\\\\

inline bool intersect(const uint32_t patch_index, const TesselationTree4SecondaryRayData& data, const Ray& ray, Hit& hit)
{
   131d0:	a4010113          	add	sp,sp,-1472
   131d4:	55b13c23          	sd	s11,1368(sp)
		bool child_transformed;
	}
	tri_stack[8];

	TesselationTree4::Header header;
	move_to_stack(header, data.tes_tree.headers[patch_index]);
   131d8:	0005bd83          	ld	s11,0(a1)
{
   131dc:	57713c23          	sd	s7,1400(sp)
   131e0:	04b13423          	sd	a1,72(sp)
	move_to_stack(header, data.tes_tree.headers[patch_index]);
   131e4:	02051b93          	sll	s7,a0,0x20
		((uint64_t*)&dst)[i] = r;
   131e8:	000db583          	ld	a1,0(s11)
{
   131ec:	5a813823          	sd	s0,1456(sp)
	move_to_stack(header, data.tes_tree.headers[patch_index]);
   131f0:	020bdb93          	srl	s7,s7,0x20
{
   131f4:	4af10413          	add	s0,sp,1199
   131f8:	fc047413          	and	s0,s0,-64
	move_to_stack(header, data.tes_tree.headers[patch_index]);
   131fc:	006b9793          	sll	a5,s7,0x6
{
   13200:	5a913423          	sd	s1,1448(sp)
   13204:	57913423          	sd	s9,1384(sp)
   13208:	00060493          	mv	s1,a2
   1320c:	00f585b3          	add	a1,a1,a5
   13210:	04000613          	li	a2,64
   13214:	00050c93          	mv	s9,a0
   13218:	04040513          	add	a0,s0,64
   1321c:	5b213023          	sd	s2,1440(sp)
   13220:	5a113c23          	sd	ra,1464(sp)
   13224:	00068913          	mv	s2,a3
   13228:	59313c23          	sd	s3,1432(sp)
   1322c:	59413823          	sd	s4,1424(sp)
   13230:	59513423          	sd	s5,1416(sp)
   13234:	59613023          	sd	s6,1408(sp)
   13238:	57813823          	sd	s8,1392(sp)
   1323c:	57a13023          	sd	s10,1376(sp)
   13240:	54812627          	fsw	fs0,1356(sp)
   13244:	54912427          	fsw	fs1,1352(sp)
   13248:	55212227          	fsw	fs2,1348(sp)
   1324c:	55312027          	fsw	fs3,1344(sp)
   13250:	53412e27          	fsw	fs4,1340(sp)
   13254:	53512c27          	fsw	fs5,1336(sp)
   13258:	53612a27          	fsw	fs6,1332(sp)
   1325c:	53712827          	fsw	fs7,1328(sp)
   13260:	53812627          	fsw	fs8,1324(sp)
   13264:	53912427          	fsw	fs9,1320(sp)
   13268:	53a12227          	fsw	fs10,1316(sp)
   1326c:	53b12027          	fsw	fs11,1312(sp)
   13270:	00006097          	auipc	ra,0x6
   13274:	920080e7          	jalr	-1760(ra) # 18b90 <memcpy>

	glm::vec3 inv_d = glm::vec3(1.0f) / ray.d;
	float max_db_over_max_error = header.max_db * ray.rcp_max_error;
   13278:	05042707          	flw	fa4,80(s0)
   1327c:	0284a787          	flw	fa5,40(s1)
	return vec3(a[0] / b[0], a[1] / b[1], a[2] / b[2]);
   13280:	0001a7b7          	lui	a5,0x1a
   13284:	2587a687          	flw	fa3,600(a5) # 1a258 <__DATA_BEGIN__+0x8>
   13288:	10f777d3          	fmul.s	fa5,fa4,fa5
	inline float operator[](int i) const { return e[i]; }
   1328c:	0144a587          	flw	fa1,20(s1)
   13290:	0104a607          	flw	fa2,16(s1)
   13294:	0184a507          	flw	fa0,24(s1)
	const TesselationTree4::CompressedNode4* nodes = &data.tes_tree.nodes[header.root_node_offset];
   13298:	008db603          	ld	a2,8(s11)
	float max_db_over_max_error = header.max_db * ray.rcp_max_error;
   1329c:	04f12a27          	fsw	fa5,84(sp)
	return vec3(a[0] / b[0], a[1] / b[1], a[2] / b[2]);
   132a0:	18b6f7d3          	fdiv.s	fa5,fa3,fa1
	inline float operator[](int i) const { return e[i]; }
   132a4:	20c603d3          	fmv.s	ft7,fa2
	const TesselationTree4::CompressedNode4* nodes = &data.tes_tree.nodes[header.root_node_offset];
   132a8:	08c13c23          	sd	a2,152(sp)
   132ac:	05446603          	lwu	a2,84(s0)
		aabb.min[i] = u16_to_f32(aabb16.min[i]) * 2.0f - 1.0f;
   132b0:	04045703          	lhu	a4,64(s0)
   132b4:	20b58353          	fmv.s	ft6,fa1
   132b8:	0ac13023          	sd	a2,160(sp)
	const CompactTri* triangles = &data.tes_tree.triangles[header.root_tri_offset];
   132bc:	010db603          	ld	a2,16(s11)
	return u16 & 0x8000u ? 1.0f : as_f32(((uint32_t)u16 << 8) | 0x3f800000u) - 1.0f;
   132c0:	00f75693          	srl	a3,a4,0xf
   132c4:	20a502d3          	fmv.s	ft5,fa0
   132c8:	06c13823          	sd	a2,112(sp)
   132cc:	05846603          	lwu	a2,88(s0)
   132d0:	06c13c23          	sd	a2,120(sp)
	return vec3(a[0] / b[0], a[1] / b[1], a[2] / b[2]);
   132d4:	18c6f653          	fdiv.s	fa2,fa3,fa2
   132d8:	08f12a27          	fsw	fa5,148(sp)
   132dc:	18a6f7d3          	fdiv.s	fa5,fa3,fa0
   132e0:	0ac12427          	fsw	fa2,168(sp)
   132e4:	08f12827          	fsw	fa5,144(sp)
   132e8:	00068463          	beqz	a3,132f0 <_Z9intersectjRK32TesselationTree4SecondaryRayDataRK3RayR3Hit+0x120>
   132ec:	6c80106f          	j	149b4 <_Z9intersectjRK32TesselationTree4SecondaryRayDataRK3RayR3Hit+0x17e4>
   132f0:	3f8006b7          	lui	a3,0x3f800
   132f4:	0087171b          	sllw	a4,a4,0x8
	return *((float*)&u);
   132f8:	00d76733          	or	a4,a4,a3
	return u16 & 0x8000u ? 1.0f : as_f32(((uint32_t)u16 << 8) | 0x3f800000u) - 1.0f;
   132fc:	f00707d3          	fmv.w.x	fa5,a4
   13300:	0001a6b7          	lui	a3,0x1a
   13304:	26c6a707          	flw	fa4,620(a3) # 1a26c <__DATA_BEGIN__+0x1c>
   13308:	08d7f7d3          	fsub.s	fa5,fa5,fa3
		aabb.max[i] = u16_to_f32(aabb16.max[i]) * 2.0f - 1.0f;
   1330c:	04645683          	lhu	a3,70(s0)
		aabb.min[i] = u16_to_f32(aabb16.min[i]) * 2.0f - 1.0f;
   13310:	0001a737          	lui	a4,0x1a
   13314:	26072687          	flw	fa3,608(a4) # 1a260 <__DATA_BEGIN__+0x10>
   13318:	00f6d613          	srl	a2,a3,0xf
   1331c:	70d7f6c3          	fmadd.s	fa3,fa5,fa3,fa4
   13320:	00060463          	beqz	a2,13328 <_Z9intersectjRK32TesselationTree4SecondaryRayDataRK3RayR3Hit+0x158>
   13324:	6a40106f          	j	149c8 <_Z9intersectjRK32TesselationTree4SecondaryRayDataRK3RayR3Hit+0x17f8>
   13328:	3f800637          	lui	a2,0x3f800
   1332c:	0086969b          	sllw	a3,a3,0x8
	return *((float*)&u);
   13330:	00c6e6b3          	or	a3,a3,a2
	return u16 & 0x8000u ? 1.0f : as_f32(((uint32_t)u16 << 8) | 0x3f800000u) - 1.0f;
   13334:	f0068753          	fmv.w.x	fa4,a3
   13338:	2587a787          	flw	fa5,600(a5)
		aabb.max[i] = u16_to_f32(aabb16.max[i]) * 2.0f - 1.0f;
   1333c:	0001a6b7          	lui	a3,0x1a
   13340:	08f77053          	fsub.s	ft0,fa4,fa5
   13344:	26c6a787          	flw	fa5,620(a3) # 1a26c <__DATA_BEGIN__+0x1c>
		aabb.min[i] = u16_to_f32(aabb16.min[i]) * 2.0f - 1.0f;
   13348:	04245683          	lhu	a3,66(s0)
		aabb.max[i] = u16_to_f32(aabb16.max[i]) * 2.0f - 1.0f;
   1334c:	26072707          	flw	fa4,608(a4)
   13350:	00f6d613          	srl	a2,a3,0xf
   13354:	78e07043          	fmadd.s	ft0,ft0,fa4,fa5
   13358:	00060463          	beqz	a2,13360 <_Z9intersectjRK32TesselationTree4SecondaryRayDataRK3RayR3Hit+0x190>
   1335c:	6800106f          	j	149dc <_Z9intersectjRK32TesselationTree4SecondaryRayDataRK3RayR3Hit+0x180c>
   13360:	3f800637          	lui	a2,0x3f800
   13364:	0086969b          	sllw	a3,a3,0x8
	return *((float*)&u);
   13368:	00c6e6b3          	or	a3,a3,a2
	return u16 & 0x8000u ? 1.0f : as_f32(((uint32_t)u16 << 8) | 0x3f800000u) - 1.0f;
   1336c:	2587a787          	flw	fa5,600(a5)
   13370:	f0068753          	fmv.w.x	fa4,a3
		aabb.min[i] = u16_to_f32(aabb16.min[i]) * 2.0f - 1.0f;
   13374:	0001a6b7          	lui	a3,0x1a
   13378:	26072607          	flw	fa2,608(a4)
   1337c:	08f77753          	fsub.s	fa4,fa4,fa5
   13380:	26c6a787          	flw	fa5,620(a3) # 1a26c <__DATA_BEGIN__+0x1c>
		aabb.max[i] = u16_to_f32(aabb16.max[i]) * 2.0f - 1.0f;
   13384:	04845683          	lhu	a3,72(s0)
   13388:	00f6d613          	srl	a2,a3,0xf
		aabb.min[i] = u16_to_f32(aabb16.min[i]) * 2.0f - 1.0f;
   1338c:	78c77743          	fmadd.s	fa4,fa4,fa2,fa5
   13390:	00060463          	beqz	a2,13398 <_Z9intersectjRK32TesselationTree4SecondaryRayDataRK3RayR3Hit+0x1c8>
   13394:	65c0106f          	j	149f0 <_Z9intersectjRK32TesselationTree4SecondaryRayDataRK3RayR3Hit+0x1820>
   13398:	0086969b          	sllw	a3,a3,0x8
   1339c:	3f800637          	lui	a2,0x3f800
	return *((float*)&u);
   133a0:	00c6e6b3          	or	a3,a3,a2
	return u16 & 0x8000u ? 1.0f : as_f32(((uint32_t)u16 << 8) | 0x3f800000u) - 1.0f;
   133a4:	f0068653          	fmv.w.x	fa2,a3
   133a8:	2587a787          	flw	fa5,600(a5)
		aabb.max[i] = u16_to_f32(aabb16.max[i]) * 2.0f - 1.0f;
   133ac:	0001a6b7          	lui	a3,0x1a
   133b0:	08f675d3          	fsub.s	fa1,fa2,fa5
   133b4:	26072607          	flw	fa2,608(a4)
   133b8:	26c6a787          	flw	fa5,620(a3) # 1a26c <__DATA_BEGIN__+0x1c>
   133bc:	78c5f5c3          	fmadd.s	fa1,fa1,fa2,fa5
		aabb.min[i] = u16_to_f32(aabb16.min[i]) * 2.0f - 1.0f;
   133c0:	04445683          	lhu	a3,68(s0)
   133c4:	2587a787          	flw	fa5,600(a5)
   133c8:	00f6d613          	srl	a2,a3,0xf
   133cc:	02061463          	bnez	a2,133f4 <_Z9intersectjRK32TesselationTree4SecondaryRayDataRK3RayR3Hit+0x224>
   133d0:	0086969b          	sllw	a3,a3,0x8
   133d4:	3f800637          	lui	a2,0x3f800
	return *((float*)&u);
   133d8:	00c6e6b3          	or	a3,a3,a2
	return u16 & 0x8000u ? 1.0f : as_f32(((uint32_t)u16 << 8) | 0x3f800000u) - 1.0f;
   133dc:	f0068653          	fmv.w.x	fa2,a3
   133e0:	0001a6b7          	lui	a3,0x1a
   133e4:	26072507          	flw	fa0,608(a4)
   133e8:	08f677d3          	fsub.s	fa5,fa2,fa5
   133ec:	26c6a607          	flw	fa2,620(a3) # 1a26c <__DATA_BEGIN__+0x1c>
   133f0:	60a7f7c3          	fmadd.s	fa5,fa5,fa0,fa2
		aabb.max[i] = u16_to_f32(aabb16.max[i]) * 2.0f - 1.0f;
   133f4:	04a45683          	lhu	a3,74(s0)
   133f8:	2587a607          	flw	fa2,600(a5)
   133fc:	00f6d613          	srl	a2,a3,0xf
   13400:	02061463          	bnez	a2,13428 <_Z9intersectjRK32TesselationTree4SecondaryRayDataRK3RayR3Hit+0x258>
   13404:	0086969b          	sllw	a3,a3,0x8
   13408:	3f800637          	lui	a2,0x3f800
	return *((float*)&u);
   1340c:	00c6e6b3          	or	a3,a3,a2
	return u16 & 0x8000u ? 1.0f : as_f32(((uint32_t)u16 << 8) | 0x3f800000u) - 1.0f;
   13410:	f0068553          	fmv.w.x	fa0,a3
   13414:	0001a6b7          	lui	a3,0x1a
   13418:	26072087          	flw	ft1,608(a4)
   1341c:	08c57653          	fsub.s	fa2,fa0,fa2
   13420:	26c6a507          	flw	fa0,620(a3) # 1a26c <__DATA_BEGIN__+0x1c>
   13424:	50167643          	fmadd.s	fa2,fa2,ft1,fa0
	inline float operator[](int i) const { return e[i]; }
   13428:	0004ac87          	flw	fs9,0(s1)
	return vec3(a[0] * b[0], a[1] * b[1], a[2] * b[2]);
   1342c:	0a812507          	flw	fa0,168(sp)
	inline float operator[](int i) const { return e[i]; }
   13430:	0044aa07          	flw	fs4,4(s1)
	return vec3(a[0] - b[0], a[1] - b[1], a[2] - b[2]);
   13434:	0996f6d3          	fsub.s	fa3,fa3,fs9
   13438:	09907053          	fsub.s	ft0,ft0,fs9
	inline float operator[](int i) const { return e[i]; }
   1343c:	0084aa87          	flw	fs5,8(s1)
	return vec3(a[0] - b[0], a[1] - b[1], a[2] - b[2]);
   13440:	09477753          	fsub.s	fa4,fa4,fs4
   13444:	0945f5d3          	fsub.s	fa1,fa1,fs4
	return vec3(a[0] * b[0], a[1] * b[1], a[2] * b[2]);
   13448:	10a6f6d3          	fmul.s	fa3,fa3,fa0
   1344c:	10a07053          	fmul.s	ft0,ft0,fa0
   13450:	09412507          	flw	fa0,148(sp)
	return vec3(a[0] - b[0], a[1] - b[1], a[2] - b[2]);
   13454:	0957f7d3          	fsub.s	fa5,fa5,fs5
   13458:	09567653          	fsub.s	fa2,fa2,fs5
	return vec3(a[0] * b[0], a[1] * b[1], a[2] * b[2]);
   1345c:	10a5f5d3          	fmul.s	fa1,fa1,fa0
   13460:	10a77753          	fmul.s	fa4,fa4,fa0
   13464:	28068553          	fmin.s	fa0,fa3,ft0
	if (tmin > tmax) return ray.t_max;//no hit || behind
   13468:	280696d3          	fmax.s	fa3,fa3,ft0
   1346c:	09012007          	flw	ft0,144(sp)
   13470:	00c4a107          	flw	ft2,12(s1)
   13474:	01c4a087          	flw	ft1,28(s1)
   13478:	1007f7d3          	fmul.s	fa5,fa5,ft0
   1347c:	10067653          	fmul.s	fa2,fa2,ft0
	float tmin = std::max(std::max(tminv.x, tminv.y), std::max(tminv.z, ray.t_min));
   13480:	28251553          	fmax.s	fa0,fa0,ft2
   13484:	28b70053          	fmin.s	ft0,fa4,fa1
	if (tmin > tmax) return ray.t_max;//no hit || behind
   13488:	281686d3          	fmin.s	fa3,fa3,ft1
   1348c:	28b71753          	fmax.s	fa4,fa4,fa1
   13490:	280515d3          	fmax.s	fa1,fa0,ft0
   13494:	28c78553          	fmin.s	fa0,fa5,fa2
   13498:	28e68753          	fmin.s	fa4,fa3,fa4
   1349c:	28c797d3          	fmax.s	fa5,fa5,fa2
   134a0:	28a596d3          	fmax.s	fa3,fa1,fa0
   134a4:	28f707d3          	fmin.s	fa5,fa4,fa5
   134a8:	a0d796d3          	flt.s	a3,fa5,fa3
   134ac:	00069463          	bnez	a3,134b4 <_Z9intersectjRK32TesselationTree4SecondaryRayDataRK3RayR3Hit+0x2e4>
	return tmin;
   134b0:	20d680d3          	fmv.s	ft1,fa3
	node_stack[0].node_index = 0;
	node_stack[0].lod = 0;
	node_stack[0].tri_type = 0;

	glm::uvec3 previous_patch_indices(0);
	if(data.last_patch_index != ~0) previous_patch_indices  = data.tes_tree.vertex_indices[data.last_patch_index];
   134b4:	04813603          	ld	a2,72(sp)
	node_stack[0].dbs = header.node.dbs;
   134b8:	04c42683          	lw	a3,76(s0)
	node_stack[0].t = intersect(decompress(header.node.aabb), ray, inv_d);
   134bc:	0e112827          	fsw	ft1,240(sp)
	if(data.last_patch_index != ~0) previous_patch_indices  = data.tes_tree.vertex_indices[data.last_patch_index];
   134c0:	01062d03          	lw	s10,16(a2) # 3f800010 <__global_pointer$+0x3f7e55c0>
	node_stack[0].dbs = header.node.dbs;
   134c4:	0ed12c23          	sw	a3,248(sp)
	node_stack[0].node_index = 0;
   134c8:	0e012a23          	sw	zero,244(sp)
	if(data.last_patch_index != ~0) previous_patch_indices  = data.tes_tree.vertex_indices[data.last_patch_index];
   134cc:	fff00693          	li	a3,-1
   134d0:	00dd1463          	bne	s10,a3,134d8 <_Z9intersectjRK32TesselationTree4SecondaryRayDataRK3RayR3Hit+0x308>
   134d4:	5580106f          	j	14a2c <_Z9intersectjRK32TesselationTree4SecondaryRayDataRK3RayR3Hit+0x185c>
   134d8:	020d1593          	sll	a1,s10,0x20
   134dc:	0205d593          	srl	a1,a1,0x20
   134e0:	018db683          	ld	a3,24(s11)
   134e4:	00159613          	sll	a2,a1,0x1
   134e8:	00b60633          	add	a2,a2,a1
   134ec:	00261613          	sll	a2,a2,0x2
   134f0:	00c686b3          	add	a3,a3,a2
   134f4:	0006a603          	lw	a2,0(a3)
   134f8:	04c13c23          	sd	a2,88(sp)
   134fc:	0046a603          	lw	a2,4(a3)
   13500:	0086a683          	lw	a3,8(a3)
   13504:	06c13023          	sd	a2,96(sp)
   13508:	06d13423          	sd	a3,104(sp)
	uint64_t dw1 = ctri.data[1];
   1350c:	06843583          	ld	a1,104(s0)
	uint64_t dw2 = ctri.data[2];
   13510:	07043e03          	ld	t3,112(s0)
	uint64_t dw0 = ctri.data[0];
   13514:	06043883          	ld	a7,96(s0)
	float f5 = u24_to_f32(((dw1 >> 56) | (dw2 << 8)) & 0xffffff);
   13518:	0385d513          	srl	a0,a1,0x38
   1351c:	008e161b          	sllw	a2,t3,0x8
   13520:	00c56533          	or	a0,a0,a2
	float f0 = u24_to_f32(dw0 & 0xffffff);
   13524:	01000637          	lui	a2,0x1000
   13528:	fff60613          	add	a2,a2,-1 # ffffff <__global_pointer$+0xfe55af>
	float f2 = u24_to_f32(((dw0 >> 48) | (dw1 << 16)) & 0xffffff);
   1352c:	0308d813          	srl	a6,a7,0x30
	float f1 = u24_to_f32((dw0 >> 24) & 0xffffff);
   13530:	0188df93          	srl	t6,a7,0x18
	float f0 = u24_to_f32(dw0 & 0xffffff);
   13534:	0008889b          	sext.w	a7,a7
   13538:	00c8f3b3          	and	t2,a7,a2
	float f2 = u24_to_f32(((dw0 >> 48) | (dw1 << 16)) & 0xffffff);
   1353c:	0105931b          	sllw	t1,a1,0x10
	float f0 = u24_to_f32(dw0 & 0xffffff);
   13540:	00713823          	sd	t2,16(sp)
	float f2 = u24_to_f32(((dw0 >> 48) | (dw1 << 16)) & 0xffffff);
   13544:	00686833          	or	a6,a6,t1
	float f3 = u24_to_f32((dw1 >> 8) & 0xffffff);
   13548:	0085df13          	srl	t5,a1,0x8

		//if the next LOD is the leaf intersect othewise push the child nodes onto the stack
		uint32_t next_level = lod + 1;
		uint32_t first_child_index = node_index << 2; //compute first child idnex
		
		if(next_level == header.last_lod) //leaf node
   1354c:	05843303          	ld	t1,88(s0)
	float f4 = u24_to_f32((dw1 >> 32) & 0xffffff);
   13550:	4205d593          	sra	a1,a1,0x20
   13554:	00c5fa33          	and	s4,a1,a2
   13558:	00b13423          	sd	a1,8(sp)
	return *((float*)&u);
   1355c:	01013583          	ld	a1,16(sp)
   13560:	0c613823          	sd	t1,208(sp)
	return (u & (1 << 23)) ? 1.0 : as_f32(u | 0x3f800000) * 2.0f - 3.0f;
   13564:	3f800337          	lui	t1,0x3f800
	return *((float*)&u);
   13568:	0065e5b3          	or	a1,a1,t1
   1356c:	00b13823          	sd	a1,16(sp)
	return (u & (1 << 23)) ? 1.0 : as_f32(u | 0x3f800000) * 2.0f - 3.0f;
   13570:	0001a6b7          	lui	a3,0x1a
   13574:	26072707          	flw	fa4,608(a4)
   13578:	2646a787          	flw	fa5,612(a3) # 1a264 <__DATA_BEGIN__+0x14>
   1357c:	01012687          	flw	fa3,16(sp)
	float f1 = u24_to_f32((dw0 >> 24) & 0xffffff);
   13580:	000f8f9b          	sext.w	t6,t6
   13584:	00cffc33          	and	s8,t6,a2
	return *((float*)&u);
   13588:	006c6c33          	or	s8,s8,t1
	return (u & (1 << 23)) ? 1.0 : as_f32(u | 0x3f800000) * 2.0f - 3.0f;
   1358c:	78e6f1c3          	fmadd.s	ft3,fa3,fa4,fa5
	float f2 = u24_to_f32(((dw0 >> 48) | (dw1 << 16)) & 0xffffff);
   13590:	0008081b          	sext.w	a6,a6
   13594:	f00c06d3          	fmv.w.x	fa3,s8
   13598:	00c87b33          	and	s6,a6,a2
	return *((float*)&u);
   1359c:	006b6b33          	or	s6,s6,t1
	return (u & (1 << 23)) ? 1.0 : as_f32(u | 0x3f800000) * 2.0f - 3.0f;
   135a0:	78e6f143          	fmadd.s	ft2,fa3,fa4,fa5
	float f3 = u24_to_f32((dw1 >> 8) & 0xffffff);
   135a4:	000f0f1b          	sext.w	t5,t5
   135a8:	f00b06d3          	fmv.w.x	fa3,s6
   135ac:	00cf7ab3          	and	s5,t5,a2
	return *((float*)&u);
   135b0:	006aeab3          	or	s5,s5,t1
	return (u & (1 << 23)) ? 1.0 : as_f32(u | 0x3f800000) * 2.0f - 3.0f;
   135b4:	78e6f0c3          	fmadd.s	ft1,fa3,fa4,fa5
   135b8:	f00a86d3          	fmv.w.x	fa3,s5
	return *((float*)&u);
   135bc:	006a6a33          	or	s4,s4,t1
	float f5 = u24_to_f32(((dw1 >> 56) | (dw2 << 8)) & 0xffffff);
   135c0:	0005051b          	sext.w	a0,a0
	return (u & (1 << 23)) ? 1.0 : as_f32(u | 0x3f800000) * 2.0f - 3.0f;
   135c4:	78e6f043          	fmadd.s	ft0,fa3,fa4,fa5
   135c8:	f00a06d3          	fmv.w.x	fa3,s4
   135cc:	00c579b3          	and	s3,a0,a2
	float f6 = u24_to_f32((dw2 >> 16) & 0xffffff);
   135d0:	010e5e93          	srl	t4,t3,0x10
	return *((float*)&u);
   135d4:	0069e9b3          	or	s3,s3,t1
	return (u & (1 << 23)) ? 1.0 : as_f32(u | 0x3f800000) * 2.0f - 3.0f;
   135d8:	78e6f543          	fmadd.s	fa0,fa3,fa4,fa5
   135dc:	000e8e9b          	sext.w	t4,t4
   135e0:	f00986d3          	fmv.w.x	fa3,s3
   135e4:	00cef3b3          	and	t2,t4,a2
	float f8 = u24_to_f32(dw3 & 0xffffff);
   135e8:	07842283          	lw	t0,120(s0)
	return *((float*)&u);
   135ec:	0063e3b3          	or	t2,t2,t1
	float f7 = u24_to_f32((dw2 >> 40) & 0xffffff);
   135f0:	028e5e13          	srl	t3,t3,0x28
   135f4:	006e65b3          	or	a1,t3,t1
	return (u & (1 << 23)) ? 1.0 : as_f32(u | 0x3f800000) * 2.0f - 3.0f;
   135f8:	78e6f5c3          	fmadd.s	fa1,fa3,fa4,fa5
   135fc:	f00386d3          	fmv.w.x	fa3,t2
	return *((float*)&u);
   13600:	00b13c23          	sd	a1,24(sp)
	float f8 = u24_to_f32(dw3 & 0xffffff);
   13604:	00c2f633          	and	a2,t0,a2
			if(data.last_patch_index != ~0) tri_stack[0].shared_edge = find_shared_edge(data.tes_tree.vertex_indices[patch_index], previous_patch_indices);
   13608:	001b9593          	sll	a1,s7,0x1
   1360c:	00666633          	or	a2,a2,t1
   13610:	01758333          	add	t1,a1,s7
	return (u & (1 << 23)) ? 1.0 : as_f32(u | 0x3f800000) * 2.0f - 3.0f;
   13614:	78e6f643          	fmadd.s	fa2,fa3,fa4,fa5
   13618:	f0060253          	fmv.w.x	ft4,a2
   1361c:	01812687          	flw	fa3,24(sp)
   13620:	00231613          	sll	a2,t1,0x2
		if(next_level == header.last_lod) //leaf node
   13624:	0d013303          	ld	t1,208(sp)
   13628:	0178d893          	srl	a7,a7,0x17
   1362c:	0018f893          	and	a7,a7,1
			if(data.last_patch_index != ~0) tri_stack[0].shared_edge = find_shared_edge(data.tes_tree.vertex_indices[patch_index], previous_patch_indices);
   13630:	0cc13c23          	sd	a2,216(sp)
   13634:	78e6f6c3          	fmadd.s	fa3,fa3,fa4,fa5
		if(next_level == header.last_lod) //leaf node
   13638:	03c35c13          	srl	s8,t1,0x3c
   1363c:	78e277c3          	fmadd.s	fa5,ft4,fa4,fa5
   13640:	00088463          	beqz	a7,13648 <_Z9intersectjRK32TesselationTree4SecondaryRayDataRK3RayR3Hit+0x478>
   13644:	33c0106f          	j	14980 <_Z9intersectjRK32TesselationTree4SecondaryRayDataRK3RayR3Hit+0x17b0>
   13648:	0a312627          	fsw	ft3,172(sp)
   1364c:	017fdf93          	srl	t6,t6,0x17
   13650:	001fff93          	and	t6,t6,1
   13654:	000f8463          	beqz	t6,1365c <_Z9intersectjRK32TesselationTree4SecondaryRayDataRK3RayR3Hit+0x48c>
   13658:	31c0106f          	j	14974 <_Z9intersectjRK32TesselationTree4SecondaryRayDataRK3RayR3Hit+0x17a4>
   1365c:	0a212827          	fsw	ft2,176(sp)
   13660:	01785813          	srl	a6,a6,0x17
   13664:	00187813          	and	a6,a6,1
   13668:	00080463          	beqz	a6,13670 <_Z9intersectjRK32TesselationTree4SecondaryRayDataRK3RayR3Hit+0x4a0>
   1366c:	2fc0106f          	j	14968 <_Z9intersectjRK32TesselationTree4SecondaryRayDataRK3RayR3Hit+0x1798>
   13670:	0a112a27          	fsw	ft1,180(sp)
   13674:	017f5f13          	srl	t5,t5,0x17
   13678:	001f7f13          	and	t5,t5,1
   1367c:	000f0463          	beqz	t5,13684 <_Z9intersectjRK32TesselationTree4SecondaryRayDataRK3RayR3Hit+0x4b4>
   13680:	2dc0106f          	j	1495c <_Z9intersectjRK32TesselationTree4SecondaryRayDataRK3RayR3Hit+0x178c>
   13684:	0a012c27          	fsw	ft0,184(sp)
   13688:	00813603          	ld	a2,8(sp)
   1368c:	01765593          	srl	a1,a2,0x17
   13690:	0015f593          	and	a1,a1,1
   13694:	00058463          	beqz	a1,1369c <_Z9intersectjRK32TesselationTree4SecondaryRayDataRK3RayR3Hit+0x4cc>
   13698:	2b80106f          	j	14950 <_Z9intersectjRK32TesselationTree4SecondaryRayDataRK3RayR3Hit+0x1780>
   1369c:	0aa12e27          	fsw	fa0,188(sp)
   136a0:	01755513          	srl	a0,a0,0x17
   136a4:	00157513          	and	a0,a0,1
   136a8:	00050463          	beqz	a0,136b0 <_Z9intersectjRK32TesselationTree4SecondaryRayDataRK3RayR3Hit+0x4e0>
   136ac:	2980106f          	j	14944 <_Z9intersectjRK32TesselationTree4SecondaryRayDataRK3RayR3Hit+0x1774>
   136b0:	0cb12027          	fsw	fa1,192(sp)
   136b4:	017ede93          	srl	t4,t4,0x17
   136b8:	001efe93          	and	t4,t4,1
   136bc:	000e8463          	beqz	t4,136c4 <_Z9intersectjRK32TesselationTree4SecondaryRayDataRK3RayR3Hit+0x4f4>
   136c0:	2780106f          	j	14938 <_Z9intersectjRK32TesselationTree4SecondaryRayDataRK3RayR3Hit+0x1768>
   136c4:	0cc12227          	fsw	fa2,196(sp)
   136c8:	017e5e13          	srl	t3,t3,0x17
   136cc:	000e0463          	beqz	t3,136d4 <_Z9intersectjRK32TesselationTree4SecondaryRayDataRK3RayR3Hit+0x504>
   136d0:	25c0106f          	j	1492c <_Z9intersectjRK32TesselationTree4SecondaryRayDataRK3RayR3Hit+0x175c>
   136d4:	0cd12427          	fsw	fa3,200(sp)
   136d8:	0172d293          	srl	t0,t0,0x17
   136dc:	0012f293          	and	t0,t0,1
   136e0:	00028463          	beqz	t0,136e8 <_Z9intersectjRK32TesselationTree4SecondaryRayDataRK3RayR3Hit+0x518>
   136e4:	2587a787          	flw	fa5,600(a5)
	e[0] *= v[0];
   136e8:	0001a637          	lui	a2,0x1a
   136ec:	0cf12627          	fsw	fa5,204(sp)
   136f0:	25c62787          	flw	fa5,604(a2) # 1a25c <__DATA_BEGIN__+0xc>
	return vec3(a[0] - b[0], a[1] - b[1], a[2] - b[2]);
   136f4:	0001a637          	lui	a2,0x1a
   136f8:	20528dd3          	fmv.s	fs11,ft5
	e[0] *= v[0];
   136fc:	08f12027          	fsw	fa5,128(sp)
	return vec3(a[0] - b[0], a[1] - b[1], a[2] - b[2]);
   13700:	26862787          	flw	fa5,616(a2) # 1a268 <__DATA_BEGIN__+0x18>
   13704:	0001a637          	lui	a2,0x1a
   13708:	20630b53          	fmv.s	fs6,ft6
   1370c:	08f12227          	fsw	fa5,132(sp)
   13710:	27062787          	flw	fa5,624(a2) # 1a270 <__DATA_BEGIN__+0x20>
   13714:	0001a637          	lui	a2,0x1a
   13718:	20738c53          	fmv.s	fs8,ft7
   1371c:	08f12427          	fsw	fa5,136(sp)
